	.def	@feat.00;
	.scl	3;
	.type	0;
	.endef
	.globl	@feat.00
@feat.00 = 0
	.file	"Aquamarine.4fa065d6152d4466-cgu.0"
	.def	_ZN103_$LT$alloc..vec..into_iter..IntoIter$LT$T$C$A$GT$$u20$as$u20$core..iter..traits..iterator..Iterator$GT$4next17hed637ec567a5eb60E;
	.scl	3;
	.type	32;
	.endef
	.section	.text,"xr",one_only,_ZN103_$LT$alloc..vec..into_iter..IntoIter$LT$T$C$A$GT$$u20$as$u20$core..iter..traits..iterator..Iterator$GT$4next17hed637ec567a5eb60E,unique,0
	.p2align	4
_ZN103_$LT$alloc..vec..into_iter..IntoIter$LT$T$C$A$GT$$u20$as$u20$core..iter..traits..iterator..Iterator$GT$4next17hed637ec567a5eb60E:
.seh_proc _ZN103_$LT$alloc..vec..into_iter..IntoIter$LT$T$C$A$GT$$u20$as$u20$core..iter..traits..iterator..Iterator$GT$4next17hed637ec567a5eb60E
	subq	$32, %rsp
	.seh_stackalloc 32
	.seh_endprologue
	movq	%rcx, (%rsp)
	movq	(%rsp), %rax
	movq	24(%rax), %rcx
	cmpq	%rcx, 8(%rax)
	je	.LBB0_3
	movq	(%rsp), %rax
	movq	8(%rax), %rcx
	movq	%rcx, 24(%rsp)
	movq	24(%rsp), %rcx
	addq	$16, %rcx
	movq	%rcx, 8(%rax)
	jmp	.LBB0_4
.LBB0_3:
	movq	$0, 8(%rsp)
	jmp	.LBB0_6
.LBB0_4:
	movq	24(%rsp), %rax
	movq	(%rax), %rcx
	movq	8(%rax), %rax
	movq	%rcx, 8(%rsp)
	movq	%rax, 16(%rsp)
.LBB0_5:
	movq	8(%rsp), %rax
	movq	16(%rsp), %rdx
	.seh_startepilogue
	addq	$32, %rsp
	.seh_endepilogue
	retq
.LBB0_6:
	jmp	.LBB0_5
	.seh_endproc

	.def	_ZN103_$LT$alloc..vec..into_iter..IntoIter$LT$T$C$A$GT$$u20$as$u20$core..iter..traits..iterator..Iterator$GT$9size_hint17hbde0c3da95ef649cE;
	.scl	3;
	.type	32;
	.endef
	.section	.text,"xr",one_only,_ZN103_$LT$alloc..vec..into_iter..IntoIter$LT$T$C$A$GT$$u20$as$u20$core..iter..traits..iterator..Iterator$GT$9size_hint17hbde0c3da95ef649cE,unique,1
	.p2align	4
_ZN103_$LT$alloc..vec..into_iter..IntoIter$LT$T$C$A$GT$$u20$as$u20$core..iter..traits..iterator..Iterator$GT$9size_hint17hbde0c3da95ef649cE:
.seh_proc _ZN103_$LT$alloc..vec..into_iter..IntoIter$LT$T$C$A$GT$$u20$as$u20$core..iter..traits..iterator..Iterator$GT$9size_hint17hbde0c3da95ef649cE
	subq	$72, %rsp
	.seh_stackalloc 72
	.seh_endprologue
	movq	%rdx, 40(%rsp)
	movq	%rcx, 48(%rsp)
	movq	%rcx, 56(%rsp)
	movq	40(%rsp), %rax
	movq	24(%rax), %rcx
	movq	8(%rax), %rdx
	callq	_ZN4core3ptr8non_null16NonNull$LT$T$GT$20offset_from_unsigned17h0ea1b9eeca63a4adE
	movq	%rax, 64(%rsp)
	movq	56(%rsp), %rax
	movq	48(%rsp), %rcx
	movq	64(%rsp), %r8
	movq	64(%rsp), %rdx
	movq	%r8, (%rcx)
	movq	$1, 8(%rcx)
	movq	%rdx, 16(%rcx)
	.seh_startepilogue
	addq	$72, %rsp
	.seh_endepilogue
	retq
	.seh_endproc

	.def	_ZN106_$LT$core..ops..range..Range$LT$usize$GT$$u20$as$u20$core..slice..index..SliceIndex$LT$$u5b$T$u5d$$GT$$GT$17get_unchecked_mut18precondition_check17hc3306cccb090860bE;
	.scl	3;
	.type	32;
	.endef
	.section	.text,"xr",one_only,_ZN106_$LT$core..ops..range..Range$LT$usize$GT$$u20$as$u20$core..slice..index..SliceIndex$LT$$u5b$T$u5d$$GT$$GT$17get_unchecked_mut18precondition_check17hc3306cccb090860bE,unique,2
	.p2align	4
_ZN106_$LT$core..ops..range..Range$LT$usize$GT$$u20$as$u20$core..slice..index..SliceIndex$LT$$u5b$T$u5d$$GT$$GT$17get_unchecked_mut18precondition_check17hc3306cccb090860bE:
.seh_proc _ZN106_$LT$core..ops..range..Range$LT$usize$GT$$u20$as$u20$core..slice..index..SliceIndex$LT$$u5b$T$u5d$$GT$$GT$17get_unchecked_mut18precondition_check17hc3306cccb090860bE
	subq	$120, %rsp
	.seh_stackalloc 120
	.seh_endprologue
	movq	%r9, 32(%rsp)
	movq	%r8, 40(%rsp)
	movq	%rdx, 48(%rsp)
	cmpq	%rcx, %rdx
	jae	.LBB2_2
.LBB2_1:
	movq	32(%rsp), %r8
	leaq	anon.aea64e3d4c527d9b67f1a42df9b9b7d7.0(%rip), %rax
	movq	%rax, 104(%rsp)
	movq	$218, 112(%rsp)
	leaq	104(%rsp), %rax
	movq	%rax, 56(%rsp)
	movq	$1, 64(%rsp)
	movq	anon.aea64e3d4c527d9b67f1a42df9b9b7d7.1(%rip), %rcx
	movq	anon.aea64e3d4c527d9b67f1a42df9b9b7d7.1+8(%rip), %rax
	movq	%rcx, 88(%rsp)
	movq	%rax, 96(%rsp)
	movl	$8, %eax
	movq	%rax, 72(%rsp)
	movq	$0, 80(%rsp)
	leaq	56(%rsp), %rcx
	xorl	%edx, %edx
	callq	_ZN4core9panicking18panic_nounwind_fmt17h93b15706b0f16961E
.LBB2_2:
	movq	48(%rsp), %rax
	movq	40(%rsp), %rcx
	cmpq	%rcx, %rax
	ja	.LBB2_1
	.seh_startepilogue
	addq	$120, %rsp
	.seh_endepilogue
	retq
	.seh_endproc

	.def	_ZN10Aquamarine4main17h41939bd937188d76E;
	.scl	2;
	.type	32;
	.endef
	.section	.text,"xr",one_only,_ZN10Aquamarine4main17h41939bd937188d76E,unique,3
	.globl	_ZN10Aquamarine4main17h41939bd937188d76E
	.p2align	4
_ZN10Aquamarine4main17h41939bd937188d76E:
.Lfunc_begin0:
.seh_proc _ZN10Aquamarine4main17h41939bd937188d76E
	.seh_handler __CxxFrameHandler3, @unwind, @except
	pushq	%rbp
	.seh_pushreg %rbp
	subq	$240, %rsp
	.seh_stackalloc 240
	leaq	128(%rsp), %rbp
	.seh_setframe %rbp, 128
	.seh_endprologue
	movq	$-2, 104(%rbp)
	leaq	24(%rbp), %rcx
	movq	%rcx, -24(%rbp)
	callq	_ZN3std3env4args17hbb311b5171ec48c0E
	movq	-24(%rbp), %rdx
	movq	%rbp, %rcx
	movq	%rcx, -16(%rbp)
	callq	_ZN4core4iter6traits8iterator8Iterator7collect17h83299bd155b5e8beE
	movq	-16(%rbp), %rcx
.Ltmp0:
	leaq	anon.aea64e3d4c527d9b67f1a42df9b9b7d7.3(%rip), %r8
	movl	$1, %edx
	callq	_ZN81_$LT$alloc..vec..Vec$LT$T$C$A$GT$$u20$as$u20$core..ops..index..Index$LT$I$GT$$GT$5index17h523d7dc0713f3dc6E
.Ltmp1:
	movq	%rax, -8(%rbp)
	jmp	.LBB3_2
.LBB3_2:
.Ltmp2:
	leaq	anon.aea64e3d4c527d9b67f1a42df9b9b7d7.4(%rip), %r8
	movq	%rbp, %rcx
	movl	$2, %edx
	callq	_ZN81_$LT$alloc..vec..Vec$LT$T$C$A$GT$$u20$as$u20$core..ops..index..Index$LT$I$GT$$GT$5index17h523d7dc0713f3dc6E
.Ltmp3:
	movq	%rax, -32(%rbp)
	jmp	.LBB3_3
.LBB3_3:
.Ltmp4:
	movq	-8(%rbp), %rdx
	leaq	80(%rbp), %rcx
	callq	_ZN3std2fs14read_to_string17hef91c3c7a9dbd5aaE
.Ltmp5:
	jmp	.LBB3_4
.LBB3_4:
.Ltmp6:
	leaq	anon.aea64e3d4c527d9b67f1a42df9b9b7d7.6(%rip), %rcx
	movq	%rsp, %rax
	movq	%rcx, 32(%rax)
	leaq	anon.aea64e3d4c527d9b67f1a42df9b9b7d7.5(%rip), %r8
	leaq	56(%rbp), %rcx
	leaq	80(%rbp), %rdx
	movl	$38, %r9d
	callq	_ZN4core6result19Result$LT$T$C$E$GT$6expect17h8dac564e94ae2eb6E
.Ltmp7:
	jmp	.LBB3_5
.LBB3_5:
.Ltmp8:
	leaq	56(%rbp), %rcx
	callq	_ZN65_$LT$alloc..string..String$u20$as$u20$core..ops..deref..Deref$GT$5deref17h5339015cb0f1e775E
.Ltmp9:
	movq	%rdx, -48(%rbp)
	movq	%rax, -40(%rbp)
	jmp	.LBB3_7
.LBB3_7:
	movq	-32(%rbp), %rcx
	movq	-48(%rbp), %rax
	movq	-40(%rbp), %rdx
	movq	%rdx, -80(%rbp)
	movq	%rax, -72(%rbp)
.Ltmp10:
	callq	_ZN65_$LT$alloc..string..String$u20$as$u20$core..ops..deref..Deref$GT$5deref17h5339015cb0f1e775E
.Ltmp11:
	movq	%rdx, -64(%rbp)
	movq	%rax, -56(%rbp)
	jmp	.LBB3_8
.LBB3_8:
.Ltmp12:
	movq	-64(%rbp), %r9
	movq	-56(%rbp), %r8
	movq	-72(%rbp), %rdx
	movq	-80(%rbp), %rcx
	callq	_ZN10Aquamarine7compile17hf2a0ca7e070594caE
.Ltmp13:
	jmp	.LBB3_9
.LBB3_9:
.Ltmp14:
	leaq	56(%rbp), %rcx
	callq	_ZN4core3ptr42drop_in_place$LT$alloc..string..String$GT$17hefd3488d5dba1b13E
.Ltmp15:
	jmp	.LBB3_10
.LBB3_10:
	movq	%rbp, %rcx
	callq	_ZN4core3ptr65drop_in_place$LT$alloc..vec..Vec$LT$alloc..string..String$GT$$GT$17h3cc1bced90b3dec7E
	nop
	.seh_startepilogue
	addq	$240, %rsp
	popq	%rbp
	.seh_endepilogue
	retq
	.seh_handlerdata
	.long	$cppxdata$_ZN10Aquamarine4main17h41939bd937188d76E@IMGREL
	.section	.text,"xr",one_only,_ZN10Aquamarine4main17h41939bd937188d76E,unique,3
	.seh_endproc
	.def	"?dtor$1@?0?_ZN10Aquamarine4main17h41939bd937188d76E@4HA";
	.scl	3;
	.type	32;
	.endef
	.p2align	4
"?dtor$1@?0?_ZN10Aquamarine4main17h41939bd937188d76E@4HA":
.seh_proc "?dtor$1@?0?_ZN10Aquamarine4main17h41939bd937188d76E@4HA"
.LBB3_1:
	movq	%rdx, 16(%rsp)
	pushq	%rbp
	.seh_pushreg %rbp
	subq	$48, %rsp
	.seh_stackalloc 48
	leaq	128(%rdx), %rbp
	.seh_endprologue
	movq	%rbp, %rcx
	callq	_ZN4core3ptr65drop_in_place$LT$alloc..vec..Vec$LT$alloc..string..String$GT$$GT$17h3cc1bced90b3dec7E
	nop
	.seh_startepilogue
	addq	$48, %rsp
	popq	%rbp
	.seh_endepilogue
	retq
	.seh_handlerdata
	.section	.text,"xr",one_only,_ZN10Aquamarine4main17h41939bd937188d76E,unique,3
	.seh_endproc
	.def	"?dtor$6@?0?_ZN10Aquamarine4main17h41939bd937188d76E@4HA";
	.scl	3;
	.type	32;
	.endef
	.p2align	4
"?dtor$6@?0?_ZN10Aquamarine4main17h41939bd937188d76E@4HA":
.seh_proc "?dtor$6@?0?_ZN10Aquamarine4main17h41939bd937188d76E@4HA"
.LBB3_6:
	movq	%rdx, 16(%rsp)
	pushq	%rbp
	.seh_pushreg %rbp
	subq	$48, %rsp
	.seh_stackalloc 48
	leaq	128(%rdx), %rbp
	.seh_endprologue
	leaq	56(%rbp), %rcx
	callq	_ZN4core3ptr42drop_in_place$LT$alloc..string..String$GT$17hefd3488d5dba1b13E
	nop
	.seh_startepilogue
	addq	$48, %rsp
	popq	%rbp
	.seh_endepilogue
	retq
.Lfunc_end0:
	.seh_handlerdata
	.section	.text,"xr",one_only,_ZN10Aquamarine4main17h41939bd937188d76E,unique,3
	.seh_endproc
	.section	.xdata,"dr",associative,_ZN10Aquamarine4main17h41939bd937188d76E,unique,0
	.p2align	2, 0x0
$cppxdata$_ZN10Aquamarine4main17h41939bd937188d76E:
	.long	429065506
	.long	2
	.long	$stateUnwindMap$_ZN10Aquamarine4main17h41939bd937188d76E@IMGREL
	.long	0
	.long	0
	.long	5
	.long	$ip2state$_ZN10Aquamarine4main17h41939bd937188d76E@IMGREL
	.long	232
	.long	0
	.long	1
$stateUnwindMap$_ZN10Aquamarine4main17h41939bd937188d76E:
	.long	-1
	.long	"?dtor$1@?0?_ZN10Aquamarine4main17h41939bd937188d76E@4HA"@IMGREL
	.long	0
	.long	"?dtor$6@?0?_ZN10Aquamarine4main17h41939bd937188d76E@4HA"@IMGREL
$ip2state$_ZN10Aquamarine4main17h41939bd937188d76E:
	.long	.Lfunc_begin0@IMGREL
	.long	-1
	.long	.Ltmp0@IMGREL+1
	.long	0
	.long	.Ltmp8@IMGREL+1
	.long	1
	.long	.Ltmp14@IMGREL+1
	.long	0
	.long	.Ltmp15@IMGREL+1
	.long	-1
	.section	.text,"xr",one_only,_ZN10Aquamarine4main17h41939bd937188d76E,unique,3

	.def	_ZN10Aquamarine7compile17hf2a0ca7e070594caE;
	.scl	3;
	.type	32;
	.endef
	.section	.text,"xr",one_only,_ZN10Aquamarine7compile17hf2a0ca7e070594caE,unique,4
	.p2align	4
_ZN10Aquamarine7compile17hf2a0ca7e070594caE:
.Lfunc_begin1:
.seh_proc _ZN10Aquamarine7compile17hf2a0ca7e070594caE
	.seh_handler __CxxFrameHandler3, @unwind, @except
	pushq	%rbp
	.seh_pushreg %rbp
	subq	$1248, %rsp
	.seh_stackalloc 1248
	leaq	128(%rsp), %rbp
	.seh_setframe %rbp, 128
	.seh_endprologue
	movq	$-2, 1112(%rbp)
	movq	%r9, 72(%rbp)
	movq	%r8, 80(%rbp)
	movq	%rdx, %r8
	movq	%rcx, %rdx
	movb	$0, 1111(%rbp)
	movq	%rsp, %rax
	movq	$1, 32(%rax)
	leaq	anon.aea64e3d4c527d9b67f1a42df9b9b7d7.7(%rip), %r9
	leaq	120(%rbp), %rcx
	movq	%rcx, 88(%rbp)
	callq	_ZN4core3str21_$LT$impl$u20$str$GT$5split17h03366d7c9ac24d36E
	movq	88(%rbp), %rdx
	movb	$1, 1111(%rbp)
	leaq	96(%rbp), %rcx
	callq	_ZN4core4iter6traits8iterator8Iterator7collect17h85f5aa26b09a1a44E
.Ltmp16:
	leaq	248(%rbp), %rcx
	callq	_ZN5alloc3vec12Vec$LT$T$GT$3new17h38f89739327b1783E
.Ltmp17:
	jmp	.LBB4_2
.LBB4_2:
	movb	$0, 1111(%rbp)
	movq	112(%rbp), %rax
	movq	%rax, 320(%rbp)
	movups	96(%rbp), %xmm0
	movaps	%xmm0, 304(%rbp)
.Ltmp18:
	leaq	272(%rbp), %rcx
	leaq	304(%rbp), %rdx
	callq	_ZN90_$LT$alloc..vec..Vec$LT$T$C$A$GT$$u20$as$u20$core..iter..traits..collect..IntoIterator$GT$9into_iter17hdf90995247911f61E
.Ltmp19:
	jmp	.LBB4_4
.LBB4_4:
	movq	272(%rbp), %rax
	movq	%rax, 336(%rbp)
	movq	280(%rbp), %rax
	movq	%rax, 344(%rbp)
	movq	288(%rbp), %rax
	movq	%rax, 352(%rbp)
	movq	296(%rbp), %rax
	movq	%rax, 360(%rbp)
.LBB4_5:
.Ltmp20:
	leaq	336(%rbp), %rcx
	callq	_ZN103_$LT$alloc..vec..into_iter..IntoIter$LT$T$C$A$GT$$u20$as$u20$core..iter..traits..iterator..Iterator$GT$4next17hed637ec567a5eb60E
.Ltmp21:
	movq	%rdx, 56(%rbp)
	movq	%rax, 64(%rbp)
	jmp	.LBB4_7
.LBB4_7:
	movq	56(%rbp), %rax
	movq	64(%rbp), %rcx
	movq	%rcx, 368(%rbp)
	movq	%rax, 376(%rbp)
	movq	368(%rbp), %rdx
	movl	$1, %eax
	xorl	%ecx, %ecx
	cmpq	$0, %rdx
	cmoveq	%rcx, %rax
	testq	$1, %rax
	je	.LBB4_9
	movq	368(%rbp), %rdx
	movq	376(%rbp), %r8
.Ltmp42:
	leaq	408(%rbp), %rcx
	callq	_ZN4core3str21_$LT$impl$u20$str$GT$16split_whitespace17hf8df23b6e90d4b31E
.Ltmp43:
	jmp	.LBB4_21
.LBB4_9:
.Ltmp22:
	leaq	336(%rbp), %rcx
	callq	_ZN4core3ptr67drop_in_place$LT$alloc..vec..into_iter..IntoIter$LT$$RF$str$GT$$GT$17hc5ae70553ea10be4E
.Ltmp23:
	jmp	.LBB4_10
.LBB4_10:
.Ltmp24:
	leaq	248(%rbp), %rcx
	callq	_ZN72_$LT$alloc..vec..Vec$LT$T$C$A$GT$$u20$as$u20$core..ops..deref..Deref$GT$5deref17h5a9f16011bc95238E
.Ltmp25:
	movq	%rdx, 40(%rbp)
	movq	%rax, 48(%rbp)
	jmp	.LBB4_11
.LBB4_11:
.Ltmp26:
	movq	40(%rbp), %r8
	movq	48(%rbp), %rdx
	movq	%rsp, %rax
	movq	$1, 32(%rax)
	leaq	anon.aea64e3d4c527d9b67f1a42df9b9b7d7.7(%rip), %r9
	leaq	952(%rbp), %rcx
	callq	_ZN5alloc5slice29_$LT$impl$u20$$u5b$T$u5d$$GT$4join17h4948bf8caee50291E
.Ltmp27:
	jmp	.LBB4_12
.LBB4_12:
.Ltmp28:
	leaq	1088(%rbp), %rcx
	leaq	952(%rbp), %rdx
	callq	_ZN4core3fmt2rt8Argument11new_display17h1cb3da2d6af2fd99E
.Ltmp29:
	jmp	.LBB4_14
.LBB4_14:
	movups	1088(%rbp), %xmm0
	movaps	%xmm0, 1072(%rbp)
.Ltmp30:
	leaq	anon.aea64e3d4c527d9b67f1a42df9b9b7d7.10(%rip), %rdx
	leaq	1024(%rbp), %rcx
	leaq	1072(%rbp), %r8
	callq	_ZN4core3fmt2rt38_$LT$impl$u20$core..fmt..Arguments$GT$6new_v117h00cce94498e5b2b1E
.Ltmp31:
	jmp	.LBB4_15
.LBB4_15:
.Ltmp32:
	leaq	1000(%rbp), %rcx
	leaq	1024(%rbp), %rdx
	callq	_ZN5alloc3fmt6format17h604d178efe11141dE
.Ltmp33:
	jmp	.LBB4_16
.LBB4_16:
	movq	72(%rbp), %rdx
	movq	80(%rbp), %rcx
	movq	1016(%rbp), %rax
	movq	%rax, 992(%rbp)
	movups	1000(%rbp), %xmm0
	movaps	%xmm0, 976(%rbp)
.Ltmp34:
	leaq	976(%rbp), %r8
	callq	_ZN3std2fs5write17h654470301ff43382E
.Ltmp35:
	movq	%rax, 32(%rbp)
	jmp	.LBB4_17
.LBB4_17:
.Ltmp36:
	movq	32(%rbp), %rcx
	leaq	anon.aea64e3d4c527d9b67f1a42df9b9b7d7.11(%rip), %rdx
	leaq	anon.aea64e3d4c527d9b67f1a42df9b9b7d7.12(%rip), %r9
	movl	$39, %r8d
	callq	_ZN4core6result19Result$LT$T$C$E$GT$6expect17h3796ae29def2d5c1E
.Ltmp37:
	jmp	.LBB4_18
.LBB4_18:
.Ltmp38:
	leaq	952(%rbp), %rcx
	callq	_ZN4core3ptr42drop_in_place$LT$alloc..string..String$GT$17hefd3488d5dba1b13E
.Ltmp39:
	jmp	.LBB4_19
.LBB4_19:
.Ltmp40:
	leaq	248(%rbp), %rcx
	callq	_ZN4core3ptr65drop_in_place$LT$alloc..vec..Vec$LT$alloc..string..String$GT$$GT$17h3cc1bced90b3dec7E
.Ltmp41:
	jmp	.LBB4_20
.LBB4_20:
	movb	$0, 1111(%rbp)
	.seh_startepilogue
	addq	$1248, %rsp
	popq	%rbp
	.seh_endepilogue
	retq
.LBB4_21:
.Ltmp44:
	leaq	384(%rbp), %rcx
	leaq	408(%rbp), %rdx
	callq	_ZN4core4iter6traits8iterator8Iterator7collect17h95a479f1e5ca8f2eE
.Ltmp45:
	jmp	.LBB4_22
.LBB4_22:
.Ltmp46:
	leaq	anon.aea64e3d4c527d9b67f1a42df9b9b7d7.13(%rip), %r8
	xorl	%eax, %eax
	movl	%eax, %edx
	leaq	384(%rbp), %rcx
	callq	_ZN81_$LT$alloc..vec..Vec$LT$T$C$A$GT$$u20$as$u20$core..ops..index..Index$LT$I$GT$$GT$5index17hadd6f709d2890928E
.Ltmp47:
	movq	%rax, 24(%rbp)
	jmp	.LBB4_24
.LBB4_24:
.Ltmp48:
	movq	24(%rbp), %rcx
	leaq	anon.aea64e3d4c527d9b67f1a42df9b9b7d7.15(%rip), %rdx
	callq	_ZN4core3cmp5impls69_$LT$impl$u20$core..cmp..PartialEq$LT$$RF$B$GT$$u20$for$u20$$RF$A$GT$2eq17h77753ba1b5172f1fE
.Ltmp49:
	movb	%al, 23(%rbp)
	jmp	.LBB4_25
.LBB4_25:
	movb	23(%rbp), %al
	testb	$1, %al
	jne	.LBB4_27
	jmp	.LBB4_26
.LBB4_26:
.Ltmp50:
	leaq	anon.aea64e3d4c527d9b67f1a42df9b9b7d7.16(%rip), %r8
	xorl	%eax, %eax
	movl	%eax, %edx
	leaq	384(%rbp), %rcx
	callq	_ZN81_$LT$alloc..vec..Vec$LT$T$C$A$GT$$u20$as$u20$core..ops..index..Index$LT$I$GT$$GT$5index17hadd6f709d2890928E
.Ltmp51:
	movq	%rax, 8(%rbp)
	jmp	.LBB4_28
.LBB4_27:
.Ltmp90:
	leaq	anon.aea64e3d4c527d9b67f1a42df9b9b7d7.35(%rip), %r8
	leaq	384(%rbp), %rcx
	movl	$1, %edx
	callq	_ZN81_$LT$alloc..vec..Vec$LT$T$C$A$GT$$u20$as$u20$core..ops..index..Index$LT$I$GT$$GT$5index17hfdde94136718e47fE
.Ltmp91:
	movq	%rdx, -8(%rbp)
	movq	%rax, (%rbp)
	jmp	.LBB4_53
.LBB4_28:
.Ltmp52:
	movq	8(%rbp), %rcx
	leaq	anon.aea64e3d4c527d9b67f1a42df9b9b7d7.18(%rip), %rdx
	callq	_ZN4core3cmp5impls69_$LT$impl$u20$core..cmp..PartialEq$LT$$RF$B$GT$$u20$for$u20$$RF$A$GT$2eq17h77753ba1b5172f1fE
.Ltmp53:
	movb	%al, -9(%rbp)
	jmp	.LBB4_29
.LBB4_29:
	movb	-9(%rbp), %al
	testb	$1, %al
	jne	.LBB4_31
	jmp	.LBB4_30
.LBB4_30:
.Ltmp104:
	leaq	384(%rbp), %rcx
	callq	_ZN4core3ptr51drop_in_place$LT$alloc..vec..Vec$LT$$RF$str$GT$$GT$17hefdd812e6e4a1bcfE
.Ltmp105:
	jmp	.LBB4_5
.LBB4_31:
.Ltmp54:
	leaq	anon.aea64e3d4c527d9b67f1a42df9b9b7d7.19(%rip), %r8
	leaq	384(%rbp), %rcx
	movl	$1, %edx
	callq	_ZN81_$LT$alloc..vec..Vec$LT$T$C$A$GT$$u20$as$u20$core..ops..index..Index$LT$I$GT$$GT$5index17hadd6f709d2890928E
.Ltmp55:
	movq	%rax, -24(%rbp)
	jmp	.LBB4_32
.LBB4_32:
.Ltmp56:
	movq	-24(%rbp), %rcx
	leaq	anon.aea64e3d4c527d9b67f1a42df9b9b7d7.21(%rip), %rdx
	callq	_ZN4core3cmp5impls69_$LT$impl$u20$core..cmp..PartialEq$LT$$RF$B$GT$$u20$for$u20$$RF$A$GT$2eq17h77753ba1b5172f1fE
.Ltmp57:
	movb	%al, -25(%rbp)
	jmp	.LBB4_33
.LBB4_33:
	movb	-25(%rbp), %al
	testb	$1, %al
	jne	.LBB4_35
	jmp	.LBB4_34
.LBB4_34:
.Ltmp58:
	leaq	anon.aea64e3d4c527d9b67f1a42df9b9b7d7.22(%rip), %r8
	leaq	384(%rbp), %rcx
	movl	$1, %edx
	callq	_ZN81_$LT$alloc..vec..Vec$LT$T$C$A$GT$$u20$as$u20$core..ops..index..Index$LT$I$GT$$GT$5index17hadd6f709d2890928E
.Ltmp59:
	movq	%rax, -40(%rbp)
	jmp	.LBB4_36
.LBB4_35:
.Ltmp76:
	leaq	anon.aea64e3d4c527d9b67f1a42df9b9b7d7.31(%rip), %r8
	leaq	384(%rbp), %rcx
	movl	$2, %edx
	callq	_ZN81_$LT$alloc..vec..Vec$LT$T$C$A$GT$$u20$as$u20$core..ops..index..Index$LT$I$GT$$GT$5index17hadd6f709d2890928E
.Ltmp77:
	movq	%rax, -48(%rbp)
	jmp	.LBB4_46
.LBB4_36:
.Ltmp60:
	movq	-40(%rbp), %rcx
	leaq	anon.aea64e3d4c527d9b67f1a42df9b9b7d7.24(%rip), %rdx
	callq	_ZN4core3cmp5impls69_$LT$impl$u20$core..cmp..PartialEq$LT$$RF$B$GT$$u20$for$u20$$RF$A$GT$2ne17h1bb6a18e5c1a5ebdE
.Ltmp61:
	movb	%al, -49(%rbp)
	jmp	.LBB4_37
.LBB4_37:
	movb	-49(%rbp), %al
	testb	$1, %al
	jne	.LBB4_38
	jmp	.LBB4_30
.LBB4_38:
.Ltmp62:
	leaq	anon.aea64e3d4c527d9b67f1a42df9b9b7d7.25(%rip), %r8
	leaq	384(%rbp), %rcx
	movl	$2, %edx
	callq	_ZN81_$LT$alloc..vec..Vec$LT$T$C$A$GT$$u20$as$u20$core..ops..index..Index$LT$I$GT$$GT$5index17hadd6f709d2890928E
.Ltmp63:
	movq	%rax, -64(%rbp)
	jmp	.LBB4_39
.LBB4_39:
.Ltmp64:
	leaq	anon.aea64e3d4c527d9b67f1a42df9b9b7d7.26(%rip), %r8
	leaq	384(%rbp), %rcx
	movl	$3, %edx
	callq	_ZN81_$LT$alloc..vec..Vec$LT$T$C$A$GT$$u20$as$u20$core..ops..index..Index$LT$I$GT$$GT$5index17hadd6f709d2890928E
.Ltmp65:
	movq	%rax, -72(%rbp)
	jmp	.LBB4_40
.LBB4_40:
.Ltmp66:
	movq	-64(%rbp), %rdx
	leaq	920(%rbp), %rcx
	callq	_ZN4core3fmt2rt8Argument11new_display17h0bdf4c352391fe4fE
.Ltmp67:
	jmp	.LBB4_41
.LBB4_41:
.Ltmp68:
	movq	-72(%rbp), %rdx
	leaq	936(%rbp), %rcx
	callq	_ZN4core3fmt2rt8Argument11new_display17h0bdf4c352391fe4fE
.Ltmp69:
	jmp	.LBB4_42
.LBB4_42:
	movups	920(%rbp), %xmm0
	movaps	%xmm0, 880(%rbp)
	movups	936(%rbp), %xmm0
	movups	%xmm0, 896(%rbp)
.Ltmp70:
	leaq	anon.aea64e3d4c527d9b67f1a42df9b9b7d7.30(%rip), %rdx
	leaq	832(%rbp), %rcx
	leaq	880(%rbp), %r8
	callq	_ZN4core3fmt2rt38_$LT$impl$u20$core..fmt..Arguments$GT$6new_v117h9fbd1865f763f7d2E
.Ltmp71:
	jmp	.LBB4_43
.LBB4_43:
.Ltmp72:
	leaq	808(%rbp), %rcx
	leaq	832(%rbp), %rdx
	callq	_ZN5alloc3fmt6format17h604d178efe11141dE
.Ltmp73:
	jmp	.LBB4_44
.LBB4_44:
	movq	824(%rbp), %rax
	movq	%rax, 800(%rbp)
	movups	808(%rbp), %xmm0
	movaps	%xmm0, 784(%rbp)
.Ltmp74:
	leaq	248(%rbp), %rcx
	leaq	784(%rbp), %rdx
	callq	_ZN5alloc3vec16Vec$LT$T$C$A$GT$4push17h2eb41d4e1406dc4eE
.Ltmp75:
	jmp	.LBB4_45
.LBB4_45:
	jmp	.LBB4_30
.LBB4_46:
.Ltmp78:
	leaq	anon.aea64e3d4c527d9b67f1a42df9b9b7d7.32(%rip), %r8
	leaq	384(%rbp), %rcx
	movl	$3, %edx
	callq	_ZN81_$LT$alloc..vec..Vec$LT$T$C$A$GT$$u20$as$u20$core..ops..index..Index$LT$I$GT$$GT$5index17hadd6f709d2890928E
.Ltmp79:
	movq	%rax, -80(%rbp)
	jmp	.LBB4_47
.LBB4_47:
.Ltmp80:
	movq	-48(%rbp), %rdx
	leaq	752(%rbp), %rcx
	callq	_ZN4core3fmt2rt8Argument11new_display17h0bdf4c352391fe4fE
.Ltmp81:
	jmp	.LBB4_48
.LBB4_48:
.Ltmp82:
	movq	-80(%rbp), %rdx
	leaq	768(%rbp), %rcx
	callq	_ZN4core3fmt2rt8Argument11new_display17h0bdf4c352391fe4fE
.Ltmp83:
	jmp	.LBB4_49
.LBB4_49:
	movups	752(%rbp), %xmm0
	movaps	%xmm0, 720(%rbp)
	movups	768(%rbp), %xmm0
	movups	%xmm0, 736(%rbp)
.Ltmp84:
	leaq	anon.aea64e3d4c527d9b67f1a42df9b9b7d7.34(%rip), %rdx
	leaq	672(%rbp), %rcx
	leaq	720(%rbp), %r8
	callq	_ZN4core3fmt2rt38_$LT$impl$u20$core..fmt..Arguments$GT$6new_v117h9fbd1865f763f7d2E
.Ltmp85:
	jmp	.LBB4_50
.LBB4_50:
.Ltmp86:
	leaq	648(%rbp), %rcx
	leaq	672(%rbp), %rdx
	callq	_ZN5alloc3fmt6format17h604d178efe11141dE
.Ltmp87:
	jmp	.LBB4_51
.LBB4_51:
	movq	664(%rbp), %rax
	movq	%rax, 640(%rbp)
	movups	648(%rbp), %xmm0
	movaps	%xmm0, 624(%rbp)
.Ltmp88:
	leaq	248(%rbp), %rcx
	leaq	624(%rbp), %rdx
	callq	_ZN5alloc3vec16Vec$LT$T$C$A$GT$4push17h2eb41d4e1406dc4eE
.Ltmp89:
	jmp	.LBB4_52
.LBB4_52:
	jmp	.LBB4_30
.LBB4_53:
.Ltmp92:
	movq	-8(%rbp), %r8
	movq	(%rbp), %rdx
	movq	%rsp, %rax
	movq	$1, 32(%rax)
	leaq	anon.aea64e3d4c527d9b67f1a42df9b9b7d7.36(%rip), %r9
	leaq	472(%rbp), %rcx
	callq	_ZN5alloc5slice29_$LT$impl$u20$$u5b$T$u5d$$GT$4join17h90ddf7d68427391cE
.Ltmp93:
	jmp	.LBB4_54
.LBB4_54:
.Ltmp94:
	leaq	608(%rbp), %rcx
	leaq	472(%rbp), %rdx
	callq	_ZN4core3fmt2rt8Argument11new_display17h1cb3da2d6af2fd99E
.Ltmp95:
	jmp	.LBB4_56
.LBB4_56:
	movups	608(%rbp), %xmm0
	movaps	%xmm0, 592(%rbp)
.Ltmp96:
	leaq	anon.aea64e3d4c527d9b67f1a42df9b9b7d7.39(%rip), %rdx
	leaq	544(%rbp), %rcx
	leaq	592(%rbp), %r8
	callq	_ZN4core3fmt2rt38_$LT$impl$u20$core..fmt..Arguments$GT$6new_v117h00cce94498e5b2b1E
.Ltmp97:
	jmp	.LBB4_57
.LBB4_57:
.Ltmp98:
	leaq	520(%rbp), %rcx
	leaq	544(%rbp), %rdx
	callq	_ZN5alloc3fmt6format17h604d178efe11141dE
.Ltmp99:
	jmp	.LBB4_58
.LBB4_58:
	movq	536(%rbp), %rax
	movq	%rax, 512(%rbp)
	movups	520(%rbp), %xmm0
	movaps	%xmm0, 496(%rbp)
.Ltmp100:
	leaq	248(%rbp), %rcx
	leaq	496(%rbp), %rdx
	callq	_ZN5alloc3vec16Vec$LT$T$C$A$GT$4push17h2eb41d4e1406dc4eE
.Ltmp101:
	jmp	.LBB4_59
.LBB4_59:
.Ltmp102:
	leaq	472(%rbp), %rcx
	callq	_ZN4core3ptr42drop_in_place$LT$alloc..string..String$GT$17hefd3488d5dba1b13E
.Ltmp103:
	jmp	.LBB4_30
	.seh_handlerdata
	.long	$cppxdata$_ZN10Aquamarine7compile17hf2a0ca7e070594caE@IMGREL
	.section	.text,"xr",one_only,_ZN10Aquamarine7compile17hf2a0ca7e070594caE,unique,4
	.seh_endproc
	.def	"?dtor$1@?0?_ZN10Aquamarine7compile17hf2a0ca7e070594caE@4HA";
	.scl	3;
	.type	32;
	.endef
	.p2align	4
"?dtor$1@?0?_ZN10Aquamarine7compile17hf2a0ca7e070594caE@4HA":
.seh_proc "?dtor$1@?0?_ZN10Aquamarine7compile17hf2a0ca7e070594caE@4HA"
.LBB4_1:
	movq	%rdx, 16(%rsp)
	pushq	%rbp
	.seh_pushreg %rbp
	subq	$48, %rsp
	.seh_stackalloc 48
	leaq	128(%rdx), %rbp
	.seh_endprologue
	testb	$1, 1111(%rbp)
	jne	.LBB4_61
	jmp	.LBB4_60
.LBB4_60:
	.seh_startepilogue
	addq	$48, %rsp
	popq	%rbp
	.seh_endepilogue
	retq
.LBB4_61:
	leaq	96(%rbp), %rcx
	callq	_ZN4core3ptr51drop_in_place$LT$alloc..vec..Vec$LT$$RF$str$GT$$GT$17hefdd812e6e4a1bcfE
	jmp	.LBB4_60
	.seh_handlerdata
	.section	.text,"xr",one_only,_ZN10Aquamarine7compile17hf2a0ca7e070594caE,unique,4
	.seh_endproc
	.def	"?dtor$3@?0?_ZN10Aquamarine7compile17hf2a0ca7e070594caE@4HA";
	.scl	3;
	.type	32;
	.endef
	.p2align	4
"?dtor$3@?0?_ZN10Aquamarine7compile17hf2a0ca7e070594caE@4HA":
.seh_proc "?dtor$3@?0?_ZN10Aquamarine7compile17hf2a0ca7e070594caE@4HA"
.LBB4_3:
	movq	%rdx, 16(%rsp)
	pushq	%rbp
	.seh_pushreg %rbp
	subq	$48, %rsp
	.seh_stackalloc 48
	leaq	128(%rdx), %rbp
	.seh_endprologue
	leaq	248(%rbp), %rcx
	callq	_ZN4core3ptr65drop_in_place$LT$alloc..vec..Vec$LT$alloc..string..String$GT$$GT$17h3cc1bced90b3dec7E
	nop
	.seh_startepilogue
	addq	$48, %rsp
	popq	%rbp
	.seh_endepilogue
	retq
	.seh_handlerdata
	.section	.text,"xr",one_only,_ZN10Aquamarine7compile17hf2a0ca7e070594caE,unique,4
	.seh_endproc
	.def	"?dtor$6@?0?_ZN10Aquamarine7compile17hf2a0ca7e070594caE@4HA";
	.scl	3;
	.type	32;
	.endef
	.p2align	4
"?dtor$6@?0?_ZN10Aquamarine7compile17hf2a0ca7e070594caE@4HA":
.seh_proc "?dtor$6@?0?_ZN10Aquamarine7compile17hf2a0ca7e070594caE@4HA"
.LBB4_6:
	movq	%rdx, 16(%rsp)
	pushq	%rbp
	.seh_pushreg %rbp
	subq	$48, %rsp
	.seh_stackalloc 48
	leaq	128(%rdx), %rbp
	.seh_endprologue
	leaq	336(%rbp), %rcx
	callq	_ZN4core3ptr67drop_in_place$LT$alloc..vec..into_iter..IntoIter$LT$$RF$str$GT$$GT$17hc5ae70553ea10be4E
	nop
	.seh_startepilogue
	addq	$48, %rsp
	popq	%rbp
	.seh_endepilogue
	retq
	.seh_handlerdata
	.section	.text,"xr",one_only,_ZN10Aquamarine7compile17hf2a0ca7e070594caE,unique,4
	.seh_endproc
	.def	"?dtor$13@?0?_ZN10Aquamarine7compile17hf2a0ca7e070594caE@4HA";
	.scl	3;
	.type	32;
	.endef
	.p2align	4
"?dtor$13@?0?_ZN10Aquamarine7compile17hf2a0ca7e070594caE@4HA":
.seh_proc "?dtor$13@?0?_ZN10Aquamarine7compile17hf2a0ca7e070594caE@4HA"
.LBB4_13:
	movq	%rdx, 16(%rsp)
	pushq	%rbp
	.seh_pushreg %rbp
	subq	$48, %rsp
	.seh_stackalloc 48
	leaq	128(%rdx), %rbp
	.seh_endprologue
	leaq	952(%rbp), %rcx
	callq	_ZN4core3ptr42drop_in_place$LT$alloc..string..String$GT$17hefd3488d5dba1b13E
	nop
	.seh_startepilogue
	addq	$48, %rsp
	popq	%rbp
	.seh_endepilogue
	retq
	.seh_handlerdata
	.section	.text,"xr",one_only,_ZN10Aquamarine7compile17hf2a0ca7e070594caE,unique,4
	.seh_endproc
	.def	"?dtor$23@?0?_ZN10Aquamarine7compile17hf2a0ca7e070594caE@4HA";
	.scl	3;
	.type	32;
	.endef
	.p2align	4
"?dtor$23@?0?_ZN10Aquamarine7compile17hf2a0ca7e070594caE@4HA":
.seh_proc "?dtor$23@?0?_ZN10Aquamarine7compile17hf2a0ca7e070594caE@4HA"
.LBB4_23:
	movq	%rdx, 16(%rsp)
	pushq	%rbp
	.seh_pushreg %rbp
	subq	$48, %rsp
	.seh_stackalloc 48
	leaq	128(%rdx), %rbp
	.seh_endprologue
	leaq	384(%rbp), %rcx
	callq	_ZN4core3ptr51drop_in_place$LT$alloc..vec..Vec$LT$$RF$str$GT$$GT$17hefdd812e6e4a1bcfE
	nop
	.seh_startepilogue
	addq	$48, %rsp
	popq	%rbp
	.seh_endepilogue
	retq
	.seh_handlerdata
	.section	.text,"xr",one_only,_ZN10Aquamarine7compile17hf2a0ca7e070594caE,unique,4
	.seh_endproc
	.def	"?dtor$55@?0?_ZN10Aquamarine7compile17hf2a0ca7e070594caE@4HA";
	.scl	3;
	.type	32;
	.endef
	.p2align	4
"?dtor$55@?0?_ZN10Aquamarine7compile17hf2a0ca7e070594caE@4HA":
.seh_proc "?dtor$55@?0?_ZN10Aquamarine7compile17hf2a0ca7e070594caE@4HA"
.LBB4_55:
	movq	%rdx, 16(%rsp)
	pushq	%rbp
	.seh_pushreg %rbp
	subq	$48, %rsp
	.seh_stackalloc 48
	leaq	128(%rdx), %rbp
	.seh_endprologue
	leaq	472(%rbp), %rcx
	callq	_ZN4core3ptr42drop_in_place$LT$alloc..string..String$GT$17hefd3488d5dba1b13E
	nop
	.seh_startepilogue
	addq	$48, %rsp
	popq	%rbp
	.seh_endepilogue
	retq
.Lfunc_end1:
	.seh_handlerdata
	.section	.text,"xr",one_only,_ZN10Aquamarine7compile17hf2a0ca7e070594caE,unique,4
	.seh_endproc
	.section	.xdata,"dr",associative,_ZN10Aquamarine7compile17hf2a0ca7e070594caE,unique,1
	.p2align	2, 0x0
$cppxdata$_ZN10Aquamarine7compile17hf2a0ca7e070594caE:
	.long	429065506
	.long	6
	.long	$stateUnwindMap$_ZN10Aquamarine7compile17hf2a0ca7e070594caE@IMGREL
	.long	0
	.long	0
	.long	15
	.long	$ip2state$_ZN10Aquamarine7compile17hf2a0ca7e070594caE@IMGREL
	.long	1240
	.long	0
	.long	1
$stateUnwindMap$_ZN10Aquamarine7compile17hf2a0ca7e070594caE:
	.long	-1
	.long	"?dtor$1@?0?_ZN10Aquamarine7compile17hf2a0ca7e070594caE@4HA"@IMGREL
	.long	0
	.long	"?dtor$3@?0?_ZN10Aquamarine7compile17hf2a0ca7e070594caE@4HA"@IMGREL
	.long	1
	.long	"?dtor$6@?0?_ZN10Aquamarine7compile17hf2a0ca7e070594caE@4HA"@IMGREL
	.long	2
	.long	"?dtor$23@?0?_ZN10Aquamarine7compile17hf2a0ca7e070594caE@4HA"@IMGREL
	.long	3
	.long	"?dtor$55@?0?_ZN10Aquamarine7compile17hf2a0ca7e070594caE@4HA"@IMGREL
	.long	1
	.long	"?dtor$13@?0?_ZN10Aquamarine7compile17hf2a0ca7e070594caE@4HA"@IMGREL
$ip2state$_ZN10Aquamarine7compile17hf2a0ca7e070594caE:
	.long	.Lfunc_begin1@IMGREL
	.long	-1
	.long	.Ltmp16@IMGREL+1
	.long	0
	.long	.Ltmp18@IMGREL+1
	.long	1
	.long	.Ltmp20@IMGREL+1
	.long	2
	.long	.Ltmp22@IMGREL+1
	.long	1
	.long	.Ltmp28@IMGREL+1
	.long	5
	.long	.Ltmp38@IMGREL+1
	.long	1
	.long	.Ltmp40@IMGREL+1
	.long	0
	.long	.Ltmp44@IMGREL+1
	.long	2
	.long	.Ltmp46@IMGREL+1
	.long	3
	.long	.Ltmp104@IMGREL+1
	.long	2
	.long	.Ltmp54@IMGREL+1
	.long	3
	.long	.Ltmp94@IMGREL+1
	.long	4
	.long	.Ltmp102@IMGREL+1
	.long	3
	.long	.Ltmp103@IMGREL+1
	.long	-1
	.section	.text,"xr",one_only,_ZN10Aquamarine7compile17hf2a0ca7e070594caE,unique,4

	.def	_ZN110_$LT$core..ops..range..RangeFrom$LT$usize$GT$$u20$as$u20$core..slice..index..SliceIndex$LT$$u5b$T$u5d$$GT$$GT$5index17h1f80fecfd708bf71E;
	.scl	3;
	.type	32;
	.endef
	.section	.text,"xr",one_only,_ZN110_$LT$core..ops..range..RangeFrom$LT$usize$GT$$u20$as$u20$core..slice..index..SliceIndex$LT$$u5b$T$u5d$$GT$$GT$5index17h1f80fecfd708bf71E,unique,5
	.p2align	4
_ZN110_$LT$core..ops..range..RangeFrom$LT$usize$GT$$u20$as$u20$core..slice..index..SliceIndex$LT$$u5b$T$u5d$$GT$$GT$5index17h1f80fecfd708bf71E:
.seh_proc _ZN110_$LT$core..ops..range..RangeFrom$LT$usize$GT$$u20$as$u20$core..slice..index..SliceIndex$LT$$u5b$T$u5d$$GT$$GT$5index17h1f80fecfd708bf71E
	subq	$72, %rsp
	.seh_stackalloc 72
	.seh_endprologue
	movq	%r9, 40(%rsp)
	movq	%r8, 48(%rsp)
	movq	%rdx, 56(%rsp)
	movq	%rcx, 64(%rsp)
	cmpq	%r8, %rcx
	ja	.LBB5_2
	movq	56(%rsp), %rax
	movq	64(%rsp), %rcx
	movq	48(%rsp), %rdx
	subq	%rcx, %rdx
	shlq	$4, %rcx
	addq	%rcx, %rax
	.seh_startepilogue
	addq	$72, %rsp
	.seh_endepilogue
	retq
.LBB5_2:
	movq	40(%rsp), %r9
	movq	48(%rsp), %r8
	movq	64(%rsp), %rcx
	movq	%r8, %rdx
	callq	_ZN4core5slice5index16slice_index_fail17hff40086732cbbb64E
	int3
	.seh_endproc

	.def	_ZN111_$LT$alloc..vec..Vec$LT$T$GT$$u20$as$u20$alloc..vec..spec_from_iter_nested..SpecFromIterNested$LT$T$C$I$GT$$GT$9from_iter17h0b5cd7f7e8b3b9a2E;
	.scl	3;
	.type	32;
	.endef
	.section	.text,"xr",one_only,_ZN111_$LT$alloc..vec..Vec$LT$T$GT$$u20$as$u20$alloc..vec..spec_from_iter_nested..SpecFromIterNested$LT$T$C$I$GT$$GT$9from_iter17h0b5cd7f7e8b3b9a2E,unique,6
	.p2align	4
_ZN111_$LT$alloc..vec..Vec$LT$T$GT$$u20$as$u20$alloc..vec..spec_from_iter_nested..SpecFromIterNested$LT$T$C$I$GT$$GT$9from_iter17h0b5cd7f7e8b3b9a2E:
.Lfunc_begin2:
.seh_proc _ZN111_$LT$alloc..vec..Vec$LT$T$GT$$u20$as$u20$alloc..vec..spec_from_iter_nested..SpecFromIterNested$LT$T$C$I$GT$$GT$9from_iter17h0b5cd7f7e8b3b9a2E
	.seh_handler __CxxFrameHandler3, @unwind, @except
	pushq	%rbp
	.seh_pushreg %rbp
	subq	$304, %rsp
	.seh_stackalloc 304
	leaq	128(%rsp), %rbp
	.seh_setframe %rbp, 128
	.seh_endprologue
	movq	$-2, 168(%rbp)
	movq	%rdx, -72(%rbp)
	movq	%rcx, -64(%rbp)
	movq	%rcx, -56(%rbp)
	movb	$1, 151(%rbp)
.Ltmp106:
	leaq	-24(%rbp), %rcx
	callq	_ZN73_$LT$std..env..Args$u20$as$u20$core..iter..traits..iterator..Iterator$GT$4next17ha4032430e7a4987fE
.Ltmp107:
	jmp	.LBB6_2
.LBB6_2:
	movabsq	$-9223372036854775808, %rdx
	movl	$1, %eax
	xorl	%ecx, %ecx
	cmpq	%rdx, -24(%rbp)
	cmoveq	%rcx, %rax
	testq	$1, %rax
	je	.LBB6_4
	movq	-72(%rbp), %rdx
	movq	-8(%rbp), %rax
	movq	%rax, 16(%rbp)
	movups	-24(%rbp), %xmm0
	movaps	%xmm0, (%rbp)
.Ltmp108:
	leaq	32(%rbp), %rcx
	callq	_ZN73_$LT$std..env..Args$u20$as$u20$core..iter..traits..iterator..Iterator$GT$9size_hint17h4d1cdfef4d7424e5E
.Ltmp109:
	jmp	.LBB6_7
.LBB6_4:
	movq	-72(%rbp), %rcx
	movq	-64(%rbp), %rax
	movq	$0, (%rax)
	movl	$8, %edx
	movq	%rdx, 8(%rax)
	movq	$0, 16(%rax)
	callq	_ZN4core3ptr35drop_in_place$LT$std..env..Args$GT$17h67289dc37abc5d95E
.LBB6_5:
	movq	-56(%rbp), %rax
	.seh_startepilogue
	addq	$304, %rsp
	popq	%rbp
	.seh_endepilogue
	retq
.LBB6_7:
	movq	32(%rbp), %rax
	incq	%rax
	movq	$-1, %rcx
	cmoveq	%rcx, %rax
	movq	%rax, 160(%rbp)
	movq	160(%rbp), %rdx
.Ltmp110:
	movl	$4, %ecx
	callq	_ZN4core3cmp3Ord3max17hcd4faa3b104f5a0bE
.Ltmp111:
	movq	%rax, -80(%rbp)
	jmp	.LBB6_8
.LBB6_8:
.Ltmp112:
	movq	-80(%rbp), %rcx
	movl	$8, %edx
	movl	$24, %r8d
	callq	_ZN5alloc7raw_vec20RawVecInner$LT$A$GT$16with_capacity_in17h3a661d45d0662375E
.Ltmp113:
	movq	%rdx, -96(%rbp)
	movq	%rax, -88(%rbp)
	jmp	.LBB6_9
.LBB6_9:
	movq	-96(%rbp), %rax
	movq	-88(%rbp), %rcx
	movq	%rcx, 56(%rbp)
	movq	%rax, 64(%rbp)
	movq	$0, 72(%rbp)
	movq	64(%rbp), %rax
	movq	16(%rbp), %rcx
	movq	%rcx, 96(%rbp)
	movaps	(%rbp), %xmm0
	movaps	%xmm0, 80(%rbp)
	movq	96(%rbp), %rcx
	movq	%rcx, 16(%rax)
	movaps	80(%rbp), %xmm0
	movups	%xmm0, (%rax)
	movq	56(%rbp), %rax
	movq	%rax, 152(%rbp)
	movq	152(%rbp), %rdx
	leaq	anon.aea64e3d4c527d9b67f1a42df9b9b7d7.41(%rip), %r8
	movl	$1, %ecx
	callq	_ZN5alloc3vec16Vec$LT$T$C$A$GT$7set_len18precondition_check17h906a77263e71aeebE
	movq	-72(%rbp), %rax
	movq	$1, 72(%rbp)
	movq	72(%rbp), %rcx
	movq	%rcx, -32(%rbp)
	movups	56(%rbp), %xmm0
	movaps	%xmm0, -48(%rbp)
	movb	$0, 151(%rbp)
	movups	(%rax), %xmm0
	movups	16(%rax), %xmm1
	movaps	%xmm1, 128(%rbp)
	movaps	%xmm0, 112(%rbp)
.Ltmp114:
	leaq	-48(%rbp), %rcx
	leaq	112(%rbp), %rdx
	callq	_ZN97_$LT$alloc..vec..Vec$LT$T$C$A$GT$$u20$as$u20$alloc..vec..spec_extend..SpecExtend$LT$T$C$I$GT$$GT$11spec_extend17he0563262b263dd17E
.Ltmp115:
	jmp	.LBB6_11
.LBB6_11:
	movq	-64(%rbp), %rax
	movq	-48(%rbp), %rcx
	movq	%rcx, (%rax)
	movq	-40(%rbp), %rcx
	movq	%rcx, 8(%rax)
	movq	-32(%rbp), %rcx
	movq	%rcx, 16(%rax)
	jmp	.LBB6_5
	.seh_handlerdata
	.long	$cppxdata$_ZN111_$LT$alloc..vec..Vec$LT$T$GT$$u20$as$u20$alloc..vec..spec_from_iter_nested..SpecFromIterNested$LT$T$C$I$GT$$GT$9from_iter17h0b5cd7f7e8b3b9a2E@IMGREL
	.section	.text,"xr",one_only,_ZN111_$LT$alloc..vec..Vec$LT$T$GT$$u20$as$u20$alloc..vec..spec_from_iter_nested..SpecFromIterNested$LT$T$C$I$GT$$GT$9from_iter17h0b5cd7f7e8b3b9a2E,unique,6
	.seh_endproc
	.def	"?dtor$1@?0?_ZN111_$LT$alloc..vec..Vec$LT$T$GT$$u20$as$u20$alloc..vec..spec_from_iter_nested..SpecFromIterNested$LT$T$C$I$GT$$GT$9from_iter17h0b5cd7f7e8b3b9a2E@4HA";
	.scl	3;
	.type	32;
	.endef
	.p2align	4
"?dtor$1@?0?_ZN111_$LT$alloc..vec..Vec$LT$T$GT$$u20$as$u20$alloc..vec..spec_from_iter_nested..SpecFromIterNested$LT$T$C$I$GT$$GT$9from_iter17h0b5cd7f7e8b3b9a2E@4HA":
.seh_proc "?dtor$1@?0?_ZN111_$LT$alloc..vec..Vec$LT$T$GT$$u20$as$u20$alloc..vec..spec_from_iter_nested..SpecFromIterNested$LT$T$C$I$GT$$GT$9from_iter17h0b5cd7f7e8b3b9a2E@4HA"
.LBB6_1:
	movq	%rdx, 16(%rsp)
	pushq	%rbp
	.seh_pushreg %rbp
	subq	$32, %rsp
	.seh_stackalloc 32
	leaq	128(%rdx), %rbp
	.seh_endprologue
	testb	$1, 151(%rbp)
	jne	.LBB6_13
	jmp	.LBB6_12
.LBB6_12:
	.seh_startepilogue
	addq	$32, %rsp
	popq	%rbp
	.seh_endepilogue
	retq
.LBB6_13:
	movq	-72(%rbp), %rcx
	callq	_ZN4core3ptr35drop_in_place$LT$std..env..Args$GT$17h67289dc37abc5d95E
	jmp	.LBB6_12
	.seh_handlerdata
	.section	.text,"xr",one_only,_ZN111_$LT$alloc..vec..Vec$LT$T$GT$$u20$as$u20$alloc..vec..spec_from_iter_nested..SpecFromIterNested$LT$T$C$I$GT$$GT$9from_iter17h0b5cd7f7e8b3b9a2E,unique,6
	.seh_endproc
	.def	"?dtor$6@?0?_ZN111_$LT$alloc..vec..Vec$LT$T$GT$$u20$as$u20$alloc..vec..spec_from_iter_nested..SpecFromIterNested$LT$T$C$I$GT$$GT$9from_iter17h0b5cd7f7e8b3b9a2E@4HA";
	.scl	3;
	.type	32;
	.endef
	.p2align	4
"?dtor$6@?0?_ZN111_$LT$alloc..vec..Vec$LT$T$GT$$u20$as$u20$alloc..vec..spec_from_iter_nested..SpecFromIterNested$LT$T$C$I$GT$$GT$9from_iter17h0b5cd7f7e8b3b9a2E@4HA":
.seh_proc "?dtor$6@?0?_ZN111_$LT$alloc..vec..Vec$LT$T$GT$$u20$as$u20$alloc..vec..spec_from_iter_nested..SpecFromIterNested$LT$T$C$I$GT$$GT$9from_iter17h0b5cd7f7e8b3b9a2E@4HA"
.LBB6_6:
	movq	%rdx, 16(%rsp)
	pushq	%rbp
	.seh_pushreg %rbp
	subq	$32, %rsp
	.seh_stackalloc 32
	leaq	128(%rdx), %rbp
	.seh_endprologue
	movq	%rbp, %rcx
	callq	_ZN4core3ptr42drop_in_place$LT$alloc..string..String$GT$17hefd3488d5dba1b13E
	nop
	.seh_startepilogue
	addq	$32, %rsp
	popq	%rbp
	.seh_endepilogue
	retq
	.seh_handlerdata
	.section	.text,"xr",one_only,_ZN111_$LT$alloc..vec..Vec$LT$T$GT$$u20$as$u20$alloc..vec..spec_from_iter_nested..SpecFromIterNested$LT$T$C$I$GT$$GT$9from_iter17h0b5cd7f7e8b3b9a2E,unique,6
	.seh_endproc
	.def	"?dtor$10@?0?_ZN111_$LT$alloc..vec..Vec$LT$T$GT$$u20$as$u20$alloc..vec..spec_from_iter_nested..SpecFromIterNested$LT$T$C$I$GT$$GT$9from_iter17h0b5cd7f7e8b3b9a2E@4HA";
	.scl	3;
	.type	32;
	.endef
	.p2align	4
"?dtor$10@?0?_ZN111_$LT$alloc..vec..Vec$LT$T$GT$$u20$as$u20$alloc..vec..spec_from_iter_nested..SpecFromIterNested$LT$T$C$I$GT$$GT$9from_iter17h0b5cd7f7e8b3b9a2E@4HA":
.seh_proc "?dtor$10@?0?_ZN111_$LT$alloc..vec..Vec$LT$T$GT$$u20$as$u20$alloc..vec..spec_from_iter_nested..SpecFromIterNested$LT$T$C$I$GT$$GT$9from_iter17h0b5cd7f7e8b3b9a2E@4HA"
.LBB6_10:
	movq	%rdx, 16(%rsp)
	pushq	%rbp
	.seh_pushreg %rbp
	subq	$32, %rsp
	.seh_stackalloc 32
	leaq	128(%rdx), %rbp
	.seh_endprologue
	leaq	-48(%rbp), %rcx
	callq	_ZN4core3ptr65drop_in_place$LT$alloc..vec..Vec$LT$alloc..string..String$GT$$GT$17h3cc1bced90b3dec7E
	nop
	.seh_startepilogue
	addq	$32, %rsp
	popq	%rbp
	.seh_endepilogue
	retq
.Lfunc_end2:
	.seh_handlerdata
	.section	.text,"xr",one_only,_ZN111_$LT$alloc..vec..Vec$LT$T$GT$$u20$as$u20$alloc..vec..spec_from_iter_nested..SpecFromIterNested$LT$T$C$I$GT$$GT$9from_iter17h0b5cd7f7e8b3b9a2E,unique,6
	.seh_endproc
	.section	.xdata,"dr",associative,_ZN111_$LT$alloc..vec..Vec$LT$T$GT$$u20$as$u20$alloc..vec..spec_from_iter_nested..SpecFromIterNested$LT$T$C$I$GT$$GT$9from_iter17h0b5cd7f7e8b3b9a2E,unique,2
	.p2align	2, 0x0
$cppxdata$_ZN111_$LT$alloc..vec..Vec$LT$T$GT$$u20$as$u20$alloc..vec..spec_from_iter_nested..SpecFromIterNested$LT$T$C$I$GT$$GT$9from_iter17h0b5cd7f7e8b3b9a2E:
	.long	429065506
	.long	3
	.long	$stateUnwindMap$_ZN111_$LT$alloc..vec..Vec$LT$T$GT$$u20$as$u20$alloc..vec..spec_from_iter_nested..SpecFromIterNested$LT$T$C$I$GT$$GT$9from_iter17h0b5cd7f7e8b3b9a2E@IMGREL
	.long	0
	.long	0
	.long	7
	.long	$ip2state$_ZN111_$LT$alloc..vec..Vec$LT$T$GT$$u20$as$u20$alloc..vec..spec_from_iter_nested..SpecFromIterNested$LT$T$C$I$GT$$GT$9from_iter17h0b5cd7f7e8b3b9a2E@IMGREL
	.long	296
	.long	0
	.long	1
$stateUnwindMap$_ZN111_$LT$alloc..vec..Vec$LT$T$GT$$u20$as$u20$alloc..vec..spec_from_iter_nested..SpecFromIterNested$LT$T$C$I$GT$$GT$9from_iter17h0b5cd7f7e8b3b9a2E:
	.long	-1
	.long	"?dtor$1@?0?_ZN111_$LT$alloc..vec..Vec$LT$T$GT$$u20$as$u20$alloc..vec..spec_from_iter_nested..SpecFromIterNested$LT$T$C$I$GT$$GT$9from_iter17h0b5cd7f7e8b3b9a2E@4HA"@IMGREL
	.long	0
	.long	"?dtor$6@?0?_ZN111_$LT$alloc..vec..Vec$LT$T$GT$$u20$as$u20$alloc..vec..spec_from_iter_nested..SpecFromIterNested$LT$T$C$I$GT$$GT$9from_iter17h0b5cd7f7e8b3b9a2E@4HA"@IMGREL
	.long	0
	.long	"?dtor$10@?0?_ZN111_$LT$alloc..vec..Vec$LT$T$GT$$u20$as$u20$alloc..vec..spec_from_iter_nested..SpecFromIterNested$LT$T$C$I$GT$$GT$9from_iter17h0b5cd7f7e8b3b9a2E@4HA"@IMGREL
$ip2state$_ZN111_$LT$alloc..vec..Vec$LT$T$GT$$u20$as$u20$alloc..vec..spec_from_iter_nested..SpecFromIterNested$LT$T$C$I$GT$$GT$9from_iter17h0b5cd7f7e8b3b9a2E:
	.long	.Lfunc_begin2@IMGREL
	.long	-1
	.long	.Ltmp106@IMGREL+1
	.long	0
	.long	.Ltmp108@IMGREL+1
	.long	1
	.long	.Ltmp109@IMGREL+1
	.long	-1
	.long	.Ltmp110@IMGREL+1
	.long	1
	.long	.Ltmp114@IMGREL+1
	.long	2
	.long	.Ltmp115@IMGREL+1
	.long	-1
	.section	.text,"xr",one_only,_ZN111_$LT$alloc..vec..Vec$LT$T$GT$$u20$as$u20$alloc..vec..spec_from_iter_nested..SpecFromIterNested$LT$T$C$I$GT$$GT$9from_iter17h0b5cd7f7e8b3b9a2E,unique,6

	.def	_ZN111_$LT$alloc..vec..Vec$LT$T$GT$$u20$as$u20$alloc..vec..spec_from_iter_nested..SpecFromIterNested$LT$T$C$I$GT$$GT$9from_iter17h0caa239c86f19f59E;
	.scl	3;
	.type	32;
	.endef
	.section	.text,"xr",one_only,_ZN111_$LT$alloc..vec..Vec$LT$T$GT$$u20$as$u20$alloc..vec..spec_from_iter_nested..SpecFromIterNested$LT$T$C$I$GT$$GT$9from_iter17h0caa239c86f19f59E,unique,7
	.p2align	4
_ZN111_$LT$alloc..vec..Vec$LT$T$GT$$u20$as$u20$alloc..vec..spec_from_iter_nested..SpecFromIterNested$LT$T$C$I$GT$$GT$9from_iter17h0caa239c86f19f59E:
.Lfunc_begin3:
.seh_proc _ZN111_$LT$alloc..vec..Vec$LT$T$GT$$u20$as$u20$alloc..vec..spec_from_iter_nested..SpecFromIterNested$LT$T$C$I$GT$$GT$9from_iter17h0caa239c86f19f59E
	.seh_handler __CxxFrameHandler3, @unwind, @except
	pushq	%rbp
	.seh_pushreg %rbp
	subq	$304, %rsp
	.seh_stackalloc 304
	leaq	128(%rsp), %rbp
	.seh_setframe %rbp, 128
	.seh_endprologue
	movq	$-2, 168(%rbp)
	movq	%rdx, -56(%rbp)
	movq	%rcx, %rax
	movq	-56(%rbp), %rcx
	movq	%rax, -48(%rbp)
	movq	%rax, -40(%rbp)
	movb	$1, 151(%rbp)
.Ltmp116:
	callq	_ZN91_$LT$core..str..iter..SplitWhitespace$u20$as$u20$core..iter..traits..iterator..Iterator$GT$4next17habe965e6e691f816E
.Ltmp117:
	movq	%rdx, -32(%rbp)
	movq	%rax, -24(%rbp)
	jmp	.LBB7_2
.LBB7_2:
	movq	-32(%rbp), %rax
	movq	-24(%rbp), %rcx
	movq	%rcx, 16(%rbp)
	movq	%rax, 24(%rbp)
	movq	16(%rbp), %rdx
	movl	$1, %eax
	xorl	%ecx, %ecx
	cmpq	$0, %rdx
	cmoveq	%rcx, %rax
	testq	$1, %rax
	je	.LBB7_4
	movq	-56(%rbp), %rdx
	movq	16(%rbp), %rax
	movq	%rax, -72(%rbp)
	movq	24(%rbp), %rax
	movq	%rax, -64(%rbp)
.Ltmp118:
	leaq	32(%rbp), %rcx
	callq	_ZN91_$LT$core..str..iter..SplitWhitespace$u20$as$u20$core..iter..traits..iterator..Iterator$GT$9size_hint17h3df1f881c73cb1f4E
.Ltmp119:
	jmp	.LBB7_7
.LBB7_4:
	movq	-48(%rbp), %rax
	movq	$0, (%rax)
	movl	$8, %ecx
	movq	%rcx, 8(%rax)
	movq	$0, 16(%rax)
.LBB7_5:
	movq	-40(%rbp), %rax
	.seh_startepilogue
	addq	$304, %rsp
	popq	%rbp
	.seh_endepilogue
	retq
.LBB7_7:
	movq	32(%rbp), %rax
	incq	%rax
	movq	$-1, %rcx
	cmoveq	%rcx, %rax
	movq	%rax, 160(%rbp)
	movq	160(%rbp), %rdx
.Ltmp120:
	movl	$4, %ecx
	callq	_ZN4core3cmp3Ord3max17hcd4faa3b104f5a0bE
.Ltmp121:
	movq	%rax, -80(%rbp)
	jmp	.LBB7_8
.LBB7_8:
.Ltmp122:
	movq	-80(%rbp), %rcx
	movl	$8, %edx
	movl	$16, %r8d
	callq	_ZN5alloc7raw_vec20RawVecInner$LT$A$GT$16with_capacity_in17h3a661d45d0662375E
.Ltmp123:
	movq	%rdx, -96(%rbp)
	movq	%rax, -88(%rbp)
	jmp	.LBB7_9
.LBB7_9:
	movq	-64(%rbp), %rcx
	movq	-72(%rbp), %rdx
	movq	-96(%rbp), %rax
	movq	-88(%rbp), %r8
	movq	%r8, 56(%rbp)
	movq	%rax, 64(%rbp)
	movq	$0, 72(%rbp)
	movq	64(%rbp), %rax
	movq	%rdx, (%rax)
	movq	%rcx, 8(%rax)
	movq	56(%rbp), %rax
	movq	%rax, 152(%rbp)
	movq	152(%rbp), %rdx
	leaq	anon.aea64e3d4c527d9b67f1a42df9b9b7d7.41(%rip), %r8
	movl	$1, %ecx
	callq	_ZN5alloc3vec16Vec$LT$T$C$A$GT$7set_len18precondition_check17h906a77263e71aeebE
	movq	-56(%rbp), %rax
	movq	$1, 72(%rbp)
	movq	72(%rbp), %rcx
	movq	%rcx, (%rbp)
	movups	56(%rbp), %xmm0
	movaps	%xmm0, -16(%rbp)
	movb	$0, 151(%rbp)
	movups	(%rax), %xmm0
	movups	16(%rax), %xmm1
	movups	32(%rax), %xmm2
	movups	48(%rax), %xmm3
	movaps	%xmm3, 128(%rbp)
	movaps	%xmm2, 112(%rbp)
	movaps	%xmm1, 96(%rbp)
	movaps	%xmm0, 80(%rbp)
.Ltmp124:
	leaq	-16(%rbp), %rcx
	leaq	80(%rbp), %rdx
	callq	_ZN97_$LT$alloc..vec..Vec$LT$T$C$A$GT$$u20$as$u20$alloc..vec..spec_extend..SpecExtend$LT$T$C$I$GT$$GT$11spec_extend17h7facc2061cdf8c64E
.Ltmp125:
	jmp	.LBB7_11
.LBB7_11:
	movq	-48(%rbp), %rax
	movq	-16(%rbp), %rcx
	movq	%rcx, (%rax)
	movq	-8(%rbp), %rcx
	movq	%rcx, 8(%rax)
	movq	(%rbp), %rcx
	movq	%rcx, 16(%rax)
	jmp	.LBB7_5
	.seh_handlerdata
	.long	$cppxdata$_ZN111_$LT$alloc..vec..Vec$LT$T$GT$$u20$as$u20$alloc..vec..spec_from_iter_nested..SpecFromIterNested$LT$T$C$I$GT$$GT$9from_iter17h0caa239c86f19f59E@IMGREL
	.section	.text,"xr",one_only,_ZN111_$LT$alloc..vec..Vec$LT$T$GT$$u20$as$u20$alloc..vec..spec_from_iter_nested..SpecFromIterNested$LT$T$C$I$GT$$GT$9from_iter17h0caa239c86f19f59E,unique,7
	.seh_endproc
	.def	"?dtor$1@?0?_ZN111_$LT$alloc..vec..Vec$LT$T$GT$$u20$as$u20$alloc..vec..spec_from_iter_nested..SpecFromIterNested$LT$T$C$I$GT$$GT$9from_iter17h0caa239c86f19f59E@4HA";
	.scl	3;
	.type	32;
	.endef
	.p2align	4
"?dtor$1@?0?_ZN111_$LT$alloc..vec..Vec$LT$T$GT$$u20$as$u20$alloc..vec..spec_from_iter_nested..SpecFromIterNested$LT$T$C$I$GT$$GT$9from_iter17h0caa239c86f19f59E@4HA":
.seh_proc "?dtor$1@?0?_ZN111_$LT$alloc..vec..Vec$LT$T$GT$$u20$as$u20$alloc..vec..spec_from_iter_nested..SpecFromIterNested$LT$T$C$I$GT$$GT$9from_iter17h0caa239c86f19f59E@4HA"
.LBB7_1:
	movq	%rdx, 16(%rsp)
	pushq	%rbp
	.seh_pushreg %rbp
	subq	$32, %rsp
	.seh_stackalloc 32
	leaq	128(%rdx), %rbp
	.seh_endprologue
	testb	$1, 151(%rbp)
	jne	.LBB7_13
	jmp	.LBB7_12
.LBB7_12:
	.seh_startepilogue
	addq	$32, %rsp
	popq	%rbp
	.seh_endepilogue
	retq
.LBB7_13:
	jmp	.LBB7_12
	.seh_handlerdata
	.section	.text,"xr",one_only,_ZN111_$LT$alloc..vec..Vec$LT$T$GT$$u20$as$u20$alloc..vec..spec_from_iter_nested..SpecFromIterNested$LT$T$C$I$GT$$GT$9from_iter17h0caa239c86f19f59E,unique,7
	.seh_endproc
	.def	"?dtor$6@?0?_ZN111_$LT$alloc..vec..Vec$LT$T$GT$$u20$as$u20$alloc..vec..spec_from_iter_nested..SpecFromIterNested$LT$T$C$I$GT$$GT$9from_iter17h0caa239c86f19f59E@4HA";
	.scl	3;
	.type	32;
	.endef
	.p2align	4
"?dtor$6@?0?_ZN111_$LT$alloc..vec..Vec$LT$T$GT$$u20$as$u20$alloc..vec..spec_from_iter_nested..SpecFromIterNested$LT$T$C$I$GT$$GT$9from_iter17h0caa239c86f19f59E@4HA":
.seh_proc "?dtor$6@?0?_ZN111_$LT$alloc..vec..Vec$LT$T$GT$$u20$as$u20$alloc..vec..spec_from_iter_nested..SpecFromIterNested$LT$T$C$I$GT$$GT$9from_iter17h0caa239c86f19f59E@4HA"
.LBB7_6:
	movq	%rdx, 16(%rsp)
	pushq	%rbp
	.seh_pushreg %rbp
	subq	$32, %rsp
	.seh_stackalloc 32
	leaq	128(%rdx), %rbp
	.seh_endprologue
	.seh_startepilogue
	addq	$32, %rsp
	popq	%rbp
	.seh_endepilogue
	retq
	.seh_handlerdata
	.section	.text,"xr",one_only,_ZN111_$LT$alloc..vec..Vec$LT$T$GT$$u20$as$u20$alloc..vec..spec_from_iter_nested..SpecFromIterNested$LT$T$C$I$GT$$GT$9from_iter17h0caa239c86f19f59E,unique,7
	.seh_endproc
	.def	"?dtor$10@?0?_ZN111_$LT$alloc..vec..Vec$LT$T$GT$$u20$as$u20$alloc..vec..spec_from_iter_nested..SpecFromIterNested$LT$T$C$I$GT$$GT$9from_iter17h0caa239c86f19f59E@4HA";
	.scl	3;
	.type	32;
	.endef
	.p2align	4
"?dtor$10@?0?_ZN111_$LT$alloc..vec..Vec$LT$T$GT$$u20$as$u20$alloc..vec..spec_from_iter_nested..SpecFromIterNested$LT$T$C$I$GT$$GT$9from_iter17h0caa239c86f19f59E@4HA":
.seh_proc "?dtor$10@?0?_ZN111_$LT$alloc..vec..Vec$LT$T$GT$$u20$as$u20$alloc..vec..spec_from_iter_nested..SpecFromIterNested$LT$T$C$I$GT$$GT$9from_iter17h0caa239c86f19f59E@4HA"
.LBB7_10:
	movq	%rdx, 16(%rsp)
	pushq	%rbp
	.seh_pushreg %rbp
	subq	$32, %rsp
	.seh_stackalloc 32
	leaq	128(%rdx), %rbp
	.seh_endprologue
	leaq	-16(%rbp), %rcx
	callq	_ZN4core3ptr51drop_in_place$LT$alloc..vec..Vec$LT$$RF$str$GT$$GT$17hefdd812e6e4a1bcfE
	nop
	.seh_startepilogue
	addq	$32, %rsp
	popq	%rbp
	.seh_endepilogue
	retq
.Lfunc_end3:
	.seh_handlerdata
	.section	.text,"xr",one_only,_ZN111_$LT$alloc..vec..Vec$LT$T$GT$$u20$as$u20$alloc..vec..spec_from_iter_nested..SpecFromIterNested$LT$T$C$I$GT$$GT$9from_iter17h0caa239c86f19f59E,unique,7
	.seh_endproc
	.section	.xdata,"dr",associative,_ZN111_$LT$alloc..vec..Vec$LT$T$GT$$u20$as$u20$alloc..vec..spec_from_iter_nested..SpecFromIterNested$LT$T$C$I$GT$$GT$9from_iter17h0caa239c86f19f59E,unique,3
	.p2align	2, 0x0
$cppxdata$_ZN111_$LT$alloc..vec..Vec$LT$T$GT$$u20$as$u20$alloc..vec..spec_from_iter_nested..SpecFromIterNested$LT$T$C$I$GT$$GT$9from_iter17h0caa239c86f19f59E:
	.long	429065506
	.long	3
	.long	$stateUnwindMap$_ZN111_$LT$alloc..vec..Vec$LT$T$GT$$u20$as$u20$alloc..vec..spec_from_iter_nested..SpecFromIterNested$LT$T$C$I$GT$$GT$9from_iter17h0caa239c86f19f59E@IMGREL
	.long	0
	.long	0
	.long	5
	.long	$ip2state$_ZN111_$LT$alloc..vec..Vec$LT$T$GT$$u20$as$u20$alloc..vec..spec_from_iter_nested..SpecFromIterNested$LT$T$C$I$GT$$GT$9from_iter17h0caa239c86f19f59E@IMGREL
	.long	296
	.long	0
	.long	1
$stateUnwindMap$_ZN111_$LT$alloc..vec..Vec$LT$T$GT$$u20$as$u20$alloc..vec..spec_from_iter_nested..SpecFromIterNested$LT$T$C$I$GT$$GT$9from_iter17h0caa239c86f19f59E:
	.long	-1
	.long	"?dtor$1@?0?_ZN111_$LT$alloc..vec..Vec$LT$T$GT$$u20$as$u20$alloc..vec..spec_from_iter_nested..SpecFromIterNested$LT$T$C$I$GT$$GT$9from_iter17h0caa239c86f19f59E@4HA"@IMGREL
	.long	0
	.long	"?dtor$6@?0?_ZN111_$LT$alloc..vec..Vec$LT$T$GT$$u20$as$u20$alloc..vec..spec_from_iter_nested..SpecFromIterNested$LT$T$C$I$GT$$GT$9from_iter17h0caa239c86f19f59E@4HA"@IMGREL
	.long	0
	.long	"?dtor$10@?0?_ZN111_$LT$alloc..vec..Vec$LT$T$GT$$u20$as$u20$alloc..vec..spec_from_iter_nested..SpecFromIterNested$LT$T$C$I$GT$$GT$9from_iter17h0caa239c86f19f59E@4HA"@IMGREL
$ip2state$_ZN111_$LT$alloc..vec..Vec$LT$T$GT$$u20$as$u20$alloc..vec..spec_from_iter_nested..SpecFromIterNested$LT$T$C$I$GT$$GT$9from_iter17h0caa239c86f19f59E:
	.long	.Lfunc_begin3@IMGREL
	.long	-1
	.long	.Ltmp116@IMGREL+1
	.long	0
	.long	.Ltmp118@IMGREL+1
	.long	1
	.long	.Ltmp124@IMGREL+1
	.long	2
	.long	.Ltmp125@IMGREL+1
	.long	-1
	.section	.text,"xr",one_only,_ZN111_$LT$alloc..vec..Vec$LT$T$GT$$u20$as$u20$alloc..vec..spec_from_iter_nested..SpecFromIterNested$LT$T$C$I$GT$$GT$9from_iter17h0caa239c86f19f59E,unique,7

	.def	_ZN111_$LT$alloc..vec..Vec$LT$T$GT$$u20$as$u20$alloc..vec..spec_from_iter_nested..SpecFromIterNested$LT$T$C$I$GT$$GT$9from_iter17h59496497c714a0f9E;
	.scl	3;
	.type	32;
	.endef
	.section	.text,"xr",one_only,_ZN111_$LT$alloc..vec..Vec$LT$T$GT$$u20$as$u20$alloc..vec..spec_from_iter_nested..SpecFromIterNested$LT$T$C$I$GT$$GT$9from_iter17h59496497c714a0f9E,unique,8
	.p2align	4
_ZN111_$LT$alloc..vec..Vec$LT$T$GT$$u20$as$u20$alloc..vec..spec_from_iter_nested..SpecFromIterNested$LT$T$C$I$GT$$GT$9from_iter17h59496497c714a0f9E:
.Lfunc_begin4:
.seh_proc _ZN111_$LT$alloc..vec..Vec$LT$T$GT$$u20$as$u20$alloc..vec..spec_from_iter_nested..SpecFromIterNested$LT$T$C$I$GT$$GT$9from_iter17h59496497c714a0f9E
	.seh_handler __CxxFrameHandler3, @unwind, @except
	pushq	%rbp
	.seh_pushreg %rbp
	subq	$368, %rsp
	.seh_stackalloc 368
	leaq	128(%rsp), %rbp
	.seh_setframe %rbp, 128
	.seh_endprologue
	movq	$-2, 232(%rbp)
	movq	%rdx, -56(%rbp)
	movq	%rcx, %rax
	movq	-56(%rbp), %rcx
	movq	%rax, -48(%rbp)
	movq	%rax, -40(%rbp)
	movb	$1, 215(%rbp)
.Ltmp126:
	callq	_ZN90_$LT$core..str..iter..Split$LT$P$GT$$u20$as$u20$core..iter..traits..iterator..Iterator$GT$4next17h6f07e0eaaed7fadbE
.Ltmp127:
	movq	%rdx, -32(%rbp)
	movq	%rax, -24(%rbp)
	jmp	.LBB8_2
.LBB8_2:
	movq	-32(%rbp), %rax
	movq	-24(%rbp), %rcx
	movq	%rcx, 16(%rbp)
	movq	%rax, 24(%rbp)
	movq	16(%rbp), %rdx
	movl	$1, %eax
	xorl	%ecx, %ecx
	cmpq	$0, %rdx
	cmoveq	%rcx, %rax
	testq	$1, %rax
	je	.LBB8_4
	movq	-56(%rbp), %rdx
	movq	16(%rbp), %rax
	movq	%rax, -72(%rbp)
	movq	24(%rbp), %rax
	movq	%rax, -64(%rbp)
.Ltmp128:
	leaq	32(%rbp), %rcx
	callq	_ZN4core4iter6traits8iterator8Iterator9size_hint17h8b6567f553b71a5aE
.Ltmp129:
	jmp	.LBB8_7
.LBB8_4:
	movq	-48(%rbp), %rax
	movq	$0, (%rax)
	movl	$8, %ecx
	movq	%rcx, 8(%rax)
	movq	$0, 16(%rax)
.LBB8_5:
	movq	-40(%rbp), %rax
	.seh_startepilogue
	addq	$368, %rsp
	popq	%rbp
	.seh_endepilogue
	retq
.LBB8_7:
	movq	32(%rbp), %rax
	incq	%rax
	movq	$-1, %rcx
	cmoveq	%rcx, %rax
	movq	%rax, 224(%rbp)
	movq	224(%rbp), %rdx
.Ltmp130:
	movl	$4, %ecx
	callq	_ZN4core3cmp3Ord3max17hcd4faa3b104f5a0bE
.Ltmp131:
	movq	%rax, -80(%rbp)
	jmp	.LBB8_8
.LBB8_8:
.Ltmp132:
	movq	-80(%rbp), %rcx
	movl	$8, %edx
	movl	$16, %r8d
	callq	_ZN5alloc7raw_vec20RawVecInner$LT$A$GT$16with_capacity_in17h3a661d45d0662375E
.Ltmp133:
	movq	%rdx, -96(%rbp)
	movq	%rax, -88(%rbp)
	jmp	.LBB8_9
.LBB8_9:
	movq	-64(%rbp), %rcx
	movq	-72(%rbp), %rdx
	movq	-96(%rbp), %rax
	movq	-88(%rbp), %r8
	movq	%r8, 56(%rbp)
	movq	%rax, 64(%rbp)
	movq	$0, 72(%rbp)
	movq	64(%rbp), %rax
	movq	%rdx, (%rax)
	movq	%rcx, 8(%rax)
	movq	56(%rbp), %rax
	movq	%rax, 216(%rbp)
	movq	216(%rbp), %rdx
	leaq	anon.aea64e3d4c527d9b67f1a42df9b9b7d7.41(%rip), %r8
	movl	$1, %ecx
	callq	_ZN5alloc3vec16Vec$LT$T$C$A$GT$7set_len18precondition_check17h906a77263e71aeebE
	movq	-56(%rbp), %rax
	movq	$1, 72(%rbp)
	movq	72(%rbp), %rcx
	movq	%rcx, (%rbp)
	movups	56(%rbp), %xmm0
	movaps	%xmm0, -16(%rbp)
	movb	$0, 215(%rbp)
	movups	112(%rax), %xmm0
	movaps	%xmm0, 192(%rbp)
	movups	96(%rax), %xmm0
	movaps	%xmm0, 176(%rbp)
	movups	80(%rax), %xmm0
	movaps	%xmm0, 160(%rbp)
	movups	64(%rax), %xmm0
	movaps	%xmm0, 144(%rbp)
	movups	(%rax), %xmm0
	movups	16(%rax), %xmm1
	movups	32(%rax), %xmm2
	movups	48(%rax), %xmm3
	movaps	%xmm3, 128(%rbp)
	movaps	%xmm2, 112(%rbp)
	movaps	%xmm1, 96(%rbp)
	movaps	%xmm0, 80(%rbp)
.Ltmp134:
	leaq	-16(%rbp), %rcx
	leaq	80(%rbp), %rdx
	callq	_ZN97_$LT$alloc..vec..Vec$LT$T$C$A$GT$$u20$as$u20$alloc..vec..spec_extend..SpecExtend$LT$T$C$I$GT$$GT$11spec_extend17he0d8c04354359ba3E
.Ltmp135:
	jmp	.LBB8_11
.LBB8_11:
	movq	-48(%rbp), %rax
	movq	-16(%rbp), %rcx
	movq	%rcx, (%rax)
	movq	-8(%rbp), %rcx
	movq	%rcx, 8(%rax)
	movq	(%rbp), %rcx
	movq	%rcx, 16(%rax)
	jmp	.LBB8_5
	.seh_handlerdata
	.long	$cppxdata$_ZN111_$LT$alloc..vec..Vec$LT$T$GT$$u20$as$u20$alloc..vec..spec_from_iter_nested..SpecFromIterNested$LT$T$C$I$GT$$GT$9from_iter17h59496497c714a0f9E@IMGREL
	.section	.text,"xr",one_only,_ZN111_$LT$alloc..vec..Vec$LT$T$GT$$u20$as$u20$alloc..vec..spec_from_iter_nested..SpecFromIterNested$LT$T$C$I$GT$$GT$9from_iter17h59496497c714a0f9E,unique,8
	.seh_endproc
	.def	"?dtor$1@?0?_ZN111_$LT$alloc..vec..Vec$LT$T$GT$$u20$as$u20$alloc..vec..spec_from_iter_nested..SpecFromIterNested$LT$T$C$I$GT$$GT$9from_iter17h59496497c714a0f9E@4HA";
	.scl	3;
	.type	32;
	.endef
	.p2align	4
"?dtor$1@?0?_ZN111_$LT$alloc..vec..Vec$LT$T$GT$$u20$as$u20$alloc..vec..spec_from_iter_nested..SpecFromIterNested$LT$T$C$I$GT$$GT$9from_iter17h59496497c714a0f9E@4HA":
.seh_proc "?dtor$1@?0?_ZN111_$LT$alloc..vec..Vec$LT$T$GT$$u20$as$u20$alloc..vec..spec_from_iter_nested..SpecFromIterNested$LT$T$C$I$GT$$GT$9from_iter17h59496497c714a0f9E@4HA"
.LBB8_1:
	movq	%rdx, 16(%rsp)
	pushq	%rbp
	.seh_pushreg %rbp
	subq	$32, %rsp
	.seh_stackalloc 32
	leaq	128(%rdx), %rbp
	.seh_endprologue
	testb	$1, 215(%rbp)
	jne	.LBB8_13
	jmp	.LBB8_12
.LBB8_12:
	.seh_startepilogue
	addq	$32, %rsp
	popq	%rbp
	.seh_endepilogue
	retq
.LBB8_13:
	jmp	.LBB8_12
	.seh_handlerdata
	.section	.text,"xr",one_only,_ZN111_$LT$alloc..vec..Vec$LT$T$GT$$u20$as$u20$alloc..vec..spec_from_iter_nested..SpecFromIterNested$LT$T$C$I$GT$$GT$9from_iter17h59496497c714a0f9E,unique,8
	.seh_endproc
	.def	"?dtor$6@?0?_ZN111_$LT$alloc..vec..Vec$LT$T$GT$$u20$as$u20$alloc..vec..spec_from_iter_nested..SpecFromIterNested$LT$T$C$I$GT$$GT$9from_iter17h59496497c714a0f9E@4HA";
	.scl	3;
	.type	32;
	.endef
	.p2align	4
"?dtor$6@?0?_ZN111_$LT$alloc..vec..Vec$LT$T$GT$$u20$as$u20$alloc..vec..spec_from_iter_nested..SpecFromIterNested$LT$T$C$I$GT$$GT$9from_iter17h59496497c714a0f9E@4HA":
.seh_proc "?dtor$6@?0?_ZN111_$LT$alloc..vec..Vec$LT$T$GT$$u20$as$u20$alloc..vec..spec_from_iter_nested..SpecFromIterNested$LT$T$C$I$GT$$GT$9from_iter17h59496497c714a0f9E@4HA"
.LBB8_6:
	movq	%rdx, 16(%rsp)
	pushq	%rbp
	.seh_pushreg %rbp
	subq	$32, %rsp
	.seh_stackalloc 32
	leaq	128(%rdx), %rbp
	.seh_endprologue
	.seh_startepilogue
	addq	$32, %rsp
	popq	%rbp
	.seh_endepilogue
	retq
	.seh_handlerdata
	.section	.text,"xr",one_only,_ZN111_$LT$alloc..vec..Vec$LT$T$GT$$u20$as$u20$alloc..vec..spec_from_iter_nested..SpecFromIterNested$LT$T$C$I$GT$$GT$9from_iter17h59496497c714a0f9E,unique,8
	.seh_endproc
	.def	"?dtor$10@?0?_ZN111_$LT$alloc..vec..Vec$LT$T$GT$$u20$as$u20$alloc..vec..spec_from_iter_nested..SpecFromIterNested$LT$T$C$I$GT$$GT$9from_iter17h59496497c714a0f9E@4HA";
	.scl	3;
	.type	32;
	.endef
	.p2align	4
"?dtor$10@?0?_ZN111_$LT$alloc..vec..Vec$LT$T$GT$$u20$as$u20$alloc..vec..spec_from_iter_nested..SpecFromIterNested$LT$T$C$I$GT$$GT$9from_iter17h59496497c714a0f9E@4HA":
.seh_proc "?dtor$10@?0?_ZN111_$LT$alloc..vec..Vec$LT$T$GT$$u20$as$u20$alloc..vec..spec_from_iter_nested..SpecFromIterNested$LT$T$C$I$GT$$GT$9from_iter17h59496497c714a0f9E@4HA"
.LBB8_10:
	movq	%rdx, 16(%rsp)
	pushq	%rbp
	.seh_pushreg %rbp
	subq	$32, %rsp
	.seh_stackalloc 32
	leaq	128(%rdx), %rbp
	.seh_endprologue
	leaq	-16(%rbp), %rcx
	callq	_ZN4core3ptr51drop_in_place$LT$alloc..vec..Vec$LT$$RF$str$GT$$GT$17hefdd812e6e4a1bcfE
	nop
	.seh_startepilogue
	addq	$32, %rsp
	popq	%rbp
	.seh_endepilogue
	retq
.Lfunc_end4:
	.seh_handlerdata
	.section	.text,"xr",one_only,_ZN111_$LT$alloc..vec..Vec$LT$T$GT$$u20$as$u20$alloc..vec..spec_from_iter_nested..SpecFromIterNested$LT$T$C$I$GT$$GT$9from_iter17h59496497c714a0f9E,unique,8
	.seh_endproc
	.section	.xdata,"dr",associative,_ZN111_$LT$alloc..vec..Vec$LT$T$GT$$u20$as$u20$alloc..vec..spec_from_iter_nested..SpecFromIterNested$LT$T$C$I$GT$$GT$9from_iter17h59496497c714a0f9E,unique,4
	.p2align	2, 0x0
$cppxdata$_ZN111_$LT$alloc..vec..Vec$LT$T$GT$$u20$as$u20$alloc..vec..spec_from_iter_nested..SpecFromIterNested$LT$T$C$I$GT$$GT$9from_iter17h59496497c714a0f9E:
	.long	429065506
	.long	3
	.long	$stateUnwindMap$_ZN111_$LT$alloc..vec..Vec$LT$T$GT$$u20$as$u20$alloc..vec..spec_from_iter_nested..SpecFromIterNested$LT$T$C$I$GT$$GT$9from_iter17h59496497c714a0f9E@IMGREL
	.long	0
	.long	0
	.long	5
	.long	$ip2state$_ZN111_$LT$alloc..vec..Vec$LT$T$GT$$u20$as$u20$alloc..vec..spec_from_iter_nested..SpecFromIterNested$LT$T$C$I$GT$$GT$9from_iter17h59496497c714a0f9E@IMGREL
	.long	360
	.long	0
	.long	1
$stateUnwindMap$_ZN111_$LT$alloc..vec..Vec$LT$T$GT$$u20$as$u20$alloc..vec..spec_from_iter_nested..SpecFromIterNested$LT$T$C$I$GT$$GT$9from_iter17h59496497c714a0f9E:
	.long	-1
	.long	"?dtor$1@?0?_ZN111_$LT$alloc..vec..Vec$LT$T$GT$$u20$as$u20$alloc..vec..spec_from_iter_nested..SpecFromIterNested$LT$T$C$I$GT$$GT$9from_iter17h59496497c714a0f9E@4HA"@IMGREL
	.long	0
	.long	"?dtor$6@?0?_ZN111_$LT$alloc..vec..Vec$LT$T$GT$$u20$as$u20$alloc..vec..spec_from_iter_nested..SpecFromIterNested$LT$T$C$I$GT$$GT$9from_iter17h59496497c714a0f9E@4HA"@IMGREL
	.long	0
	.long	"?dtor$10@?0?_ZN111_$LT$alloc..vec..Vec$LT$T$GT$$u20$as$u20$alloc..vec..spec_from_iter_nested..SpecFromIterNested$LT$T$C$I$GT$$GT$9from_iter17h59496497c714a0f9E@4HA"@IMGREL
$ip2state$_ZN111_$LT$alloc..vec..Vec$LT$T$GT$$u20$as$u20$alloc..vec..spec_from_iter_nested..SpecFromIterNested$LT$T$C$I$GT$$GT$9from_iter17h59496497c714a0f9E:
	.long	.Lfunc_begin4@IMGREL
	.long	-1
	.long	.Ltmp126@IMGREL+1
	.long	0
	.long	.Ltmp128@IMGREL+1
	.long	1
	.long	.Ltmp134@IMGREL+1
	.long	2
	.long	.Ltmp135@IMGREL+1
	.long	-1
	.section	.text,"xr",one_only,_ZN111_$LT$alloc..vec..Vec$LT$T$GT$$u20$as$u20$alloc..vec..spec_from_iter_nested..SpecFromIterNested$LT$T$C$I$GT$$GT$9from_iter17h59496497c714a0f9E,unique,8

	.def	_ZN132_$LT$alloc..vec..Vec$LT$T$C$A$GT$$u20$as$u20$alloc..vec..spec_extend..SpecExtend$LT$$RF$T$C$core..slice..iter..Iter$LT$T$GT$$GT$$GT$11spec_extend17h08414a8c82b56545E;
	.scl	3;
	.type	32;
	.endef
	.section	.text,"xr",one_only,_ZN132_$LT$alloc..vec..Vec$LT$T$C$A$GT$$u20$as$u20$alloc..vec..spec_extend..SpecExtend$LT$$RF$T$C$core..slice..iter..Iter$LT$T$GT$$GT$$GT$11spec_extend17h08414a8c82b56545E,unique,9
	.p2align	4
_ZN132_$LT$alloc..vec..Vec$LT$T$C$A$GT$$u20$as$u20$alloc..vec..spec_extend..SpecExtend$LT$$RF$T$C$core..slice..iter..Iter$LT$T$GT$$GT$$GT$11spec_extend17h08414a8c82b56545E:
.seh_proc _ZN132_$LT$alloc..vec..Vec$LT$T$C$A$GT$$u20$as$u20$alloc..vec..spec_extend..SpecExtend$LT$$RF$T$C$core..slice..iter..Iter$LT$T$GT$$GT$$GT$11spec_extend17h08414a8c82b56545E
	subq	$72, %rsp
	.seh_stackalloc 72
	.seh_endprologue
	movq	%r8, 40(%rsp)
	movq	%rdx, 48(%rsp)
	movq	%rcx, 56(%rsp)
	movq	48(%rsp), %rdx
	movq	40(%rsp), %rcx
	callq	_ZN4core3ptr8non_null16NonNull$LT$T$GT$20offset_from_unsigned17h9c1b6a0f212baf5eE
	movq	%rax, 64(%rsp)
	jmp	.LBB9_3
.LBB9_3:
	movq	48(%rsp), %rcx
	movq	64(%rsp), %r9
	movl	$1, %r8d
	leaq	anon.aea64e3d4c527d9b67f1a42df9b9b7d7.43(%rip), %rax
	movq	%r8, %rdx
	movq	%rax, 32(%rsp)
	callq	_ZN4core5slice3raw14from_raw_parts18precondition_check17h88512fbb981fe93cE
	movq	48(%rsp), %rdx
	movq	56(%rsp), %rcx
	movq	64(%rsp), %r8
	callq	_ZN5alloc3vec16Vec$LT$T$C$A$GT$15append_elements17hf71d6c4f49dc96e0E
	nop
	.seh_startepilogue
	addq	$72, %rsp
	.seh_endepilogue
	retq
	.seh_endproc

	.def	_ZN145_$LT$core..option..Option$LT$T$GT$$u20$as$u20$core..ops..try_trait..FromResidual$LT$core..option..Option$LT$core..convert..Infallible$GT$$GT$$GT$13from_residual17hc6f812e92aafce93E;
	.scl	3;
	.type	32;
	.endef
	.section	.text,"xr",one_only,_ZN145_$LT$core..option..Option$LT$T$GT$$u20$as$u20$core..ops..try_trait..FromResidual$LT$core..option..Option$LT$core..convert..Infallible$GT$$GT$$GT$13from_residual17hc6f812e92aafce93E,unique,10
	.p2align	4
_ZN145_$LT$core..option..Option$LT$T$GT$$u20$as$u20$core..ops..try_trait..FromResidual$LT$core..option..Option$LT$core..convert..Infallible$GT$$GT$$GT$13from_residual17hc6f812e92aafce93E:
	xorl	%eax, %eax
	retq

	.def	_ZN157_$LT$$LT$alloc..vec..into_iter..IntoIter$LT$T$C$A$GT$$u20$as$u20$core..ops..drop..Drop$GT$..drop..DropGuard$LT$T$C$A$GT$$u20$as$u20$core..ops..drop..Drop$GT$4drop17habe61256fa17d96fE;
	.scl	3;
	.type	32;
	.endef
	.section	.text,"xr",one_only,_ZN157_$LT$$LT$alloc..vec..into_iter..IntoIter$LT$T$C$A$GT$$u20$as$u20$core..ops..drop..Drop$GT$..drop..DropGuard$LT$T$C$A$GT$$u20$as$u20$core..ops..drop..Drop$GT$4drop17habe61256fa17d96fE,unique,11
	.p2align	4
_ZN157_$LT$$LT$alloc..vec..into_iter..IntoIter$LT$T$C$A$GT$$u20$as$u20$core..ops..drop..Drop$GT$..drop..DropGuard$LT$T$C$A$GT$$u20$as$u20$core..ops..drop..Drop$GT$4drop17habe61256fa17d96fE:
.seh_proc _ZN157_$LT$$LT$alloc..vec..into_iter..IntoIter$LT$T$C$A$GT$$u20$as$u20$core..ops..drop..Drop$GT$..drop..DropGuard$LT$T$C$A$GT$$u20$as$u20$core..ops..drop..Drop$GT$4drop17habe61256fa17d96fE
	subq	$72, %rsp
	.seh_stackalloc 72
	.seh_endprologue
	movq	(%rcx), %rax
	movq	(%rax), %rax
	movq	%rax, 32(%rsp)
	movq	(%rcx), %rax
	movq	16(%rax), %rax
	movq	%rax, 40(%rsp)
	movq	40(%rsp), %rax
	movq	%rax, 64(%rsp)
	movq	32(%rsp), %rax
	movq	64(%rsp), %rcx
	movq	%rcx, 48(%rsp)
	movq	%rax, 56(%rsp)
	leaq	48(%rsp), %rcx
	callq	_ZN4core3ptr58drop_in_place$LT$alloc..raw_vec..RawVec$LT$$RF$str$GT$$GT$17hf15b422688aef2ecE
	nop
	.seh_startepilogue
	addq	$72, %rsp
	.seh_endepilogue
	retq
	.seh_endproc

	.def	_ZN157_$LT$$LT$alloc..vec..into_iter..IntoIter$LT$T$C$A$GT$$u20$as$u20$core..ops..drop..Drop$GT$..drop..DropGuard$LT$T$C$A$GT$$u20$as$u20$core..ops..drop..Drop$GT$4drop17haeea43adfb59574fE;
	.scl	3;
	.type	32;
	.endef
	.section	.text,"xr",one_only,_ZN157_$LT$$LT$alloc..vec..into_iter..IntoIter$LT$T$C$A$GT$$u20$as$u20$core..ops..drop..Drop$GT$..drop..DropGuard$LT$T$C$A$GT$$u20$as$u20$core..ops..drop..Drop$GT$4drop17haeea43adfb59574fE,unique,12
	.p2align	4
_ZN157_$LT$$LT$alloc..vec..into_iter..IntoIter$LT$T$C$A$GT$$u20$as$u20$core..ops..drop..Drop$GT$..drop..DropGuard$LT$T$C$A$GT$$u20$as$u20$core..ops..drop..Drop$GT$4drop17haeea43adfb59574fE:
.seh_proc _ZN157_$LT$$LT$alloc..vec..into_iter..IntoIter$LT$T$C$A$GT$$u20$as$u20$core..ops..drop..Drop$GT$..drop..DropGuard$LT$T$C$A$GT$$u20$as$u20$core..ops..drop..Drop$GT$4drop17haeea43adfb59574fE
	subq	$72, %rsp
	.seh_stackalloc 72
	.seh_endprologue
	movq	(%rcx), %rax
	movq	(%rax), %rax
	movq	%rax, 32(%rsp)
	movq	(%rcx), %rax
	movq	16(%rax), %rax
	movq	%rax, 40(%rsp)
	movq	40(%rsp), %rax
	movq	%rax, 64(%rsp)
	movq	32(%rsp), %rax
	movq	64(%rsp), %rcx
	movq	%rcx, 48(%rsp)
	movq	%rax, 56(%rsp)
	leaq	48(%rsp), %rcx
	callq	_ZN4core3ptr77drop_in_place$LT$alloc..raw_vec..RawVec$LT$std..ffi..os_str..OsString$GT$$GT$17h4cb848863880959aE
	nop
	.seh_startepilogue
	addq	$72, %rsp
	.seh_endepilogue
	retq
	.seh_endproc

	.def	_ZN185_$LT$core..ops..control_flow..ControlFlow$LT$B$C$C$GT$$u20$as$u20$core..ops..try_trait..FromResidual$LT$core..ops..control_flow..ControlFlow$LT$B$C$core..convert..Infallible$GT$$GT$$GT$13from_residual17hfa00808986c33c83E;
	.scl	3;
	.type	32;
	.endef
	.section	.text,"xr",one_only,_ZN185_$LT$core..ops..control_flow..ControlFlow$LT$B$C$C$GT$$u20$as$u20$core..ops..try_trait..FromResidual$LT$core..ops..control_flow..ControlFlow$LT$B$C$core..convert..Infallible$GT$$GT$$GT$13from_residual17hfa00808986c33c83E,unique,13
	.p2align	4
_ZN185_$LT$core..ops..control_flow..ControlFlow$LT$B$C$C$GT$$u20$as$u20$core..ops..try_trait..FromResidual$LT$core..ops..control_flow..ControlFlow$LT$B$C$core..convert..Infallible$GT$$GT$$GT$13from_residual17hfa00808986c33c83E:
	movq	%rcx, %rax
	retq

	.def	_ZN3std2fs14read_to_string17hef91c3c7a9dbd5aaE;
	.scl	3;
	.type	32;
	.endef
	.section	.text,"xr",one_only,_ZN3std2fs14read_to_string17hef91c3c7a9dbd5aaE,unique,14
	.p2align	4
_ZN3std2fs14read_to_string17hef91c3c7a9dbd5aaE:
.Lfunc_begin5:
.seh_proc _ZN3std2fs14read_to_string17hef91c3c7a9dbd5aaE
	.seh_handler __CxxFrameHandler3, @unwind, @except
	pushq	%rbp
	.seh_pushreg %rbp
	subq	$80, %rsp
	.seh_stackalloc 80
	leaq	80(%rsp), %rbp
	.seh_setframe %rbp, 80
	.seh_endprologue
	movq	$-2, -8(%rbp)
	movq	%rcx, -48(%rbp)
	movq	%rcx, -40(%rbp)
	movq	%rdx, -16(%rbp)
.Ltmp136:
	leaq	-16(%rbp), %rcx
	callq	_ZN55_$LT$$RF$T$u20$as$u20$core..convert..AsRef$LT$U$GT$$GT$6as_ref17h89277ebb6cf6dea3E
.Ltmp137:
	movq	%rdx, -32(%rbp)
	movq	%rax, -24(%rbp)
	jmp	.LBB14_2
.LBB14_2:
.Ltmp138:
	movq	-32(%rbp), %r8
	movq	-24(%rbp), %rdx
	movq	-48(%rbp), %rcx
	callq	_ZN3std2fs14read_to_string5inner17he7c2a15d3bf7d653E
.Ltmp139:
	jmp	.LBB14_3
.LBB14_3:
	movq	-40(%rbp), %rax
	.seh_startepilogue
	addq	$80, %rsp
	popq	%rbp
	.seh_endepilogue
	retq
	.seh_handlerdata
	.long	$cppxdata$_ZN3std2fs14read_to_string17hef91c3c7a9dbd5aaE@IMGREL
	.section	.text,"xr",one_only,_ZN3std2fs14read_to_string17hef91c3c7a9dbd5aaE,unique,14
	.seh_endproc
	.def	"?dtor$1@?0?_ZN3std2fs14read_to_string17hef91c3c7a9dbd5aaE@4HA";
	.scl	3;
	.type	32;
	.endef
	.p2align	4
"?dtor$1@?0?_ZN3std2fs14read_to_string17hef91c3c7a9dbd5aaE@4HA":
.seh_proc "?dtor$1@?0?_ZN3std2fs14read_to_string17hef91c3c7a9dbd5aaE@4HA"
.LBB14_1:
	movq	%rdx, 16(%rsp)
	pushq	%rbp
	.seh_pushreg %rbp
	subq	$32, %rsp
	.seh_stackalloc 32
	leaq	80(%rdx), %rbp
	.seh_endprologue
	.seh_startepilogue
	addq	$32, %rsp
	popq	%rbp
	.seh_endepilogue
	retq
.Lfunc_end5:
	.seh_handlerdata
	.section	.text,"xr",one_only,_ZN3std2fs14read_to_string17hef91c3c7a9dbd5aaE,unique,14
	.seh_endproc
	.section	.xdata,"dr",associative,_ZN3std2fs14read_to_string17hef91c3c7a9dbd5aaE,unique,5
	.p2align	2, 0x0
$cppxdata$_ZN3std2fs14read_to_string17hef91c3c7a9dbd5aaE:
	.long	429065506
	.long	1
	.long	$stateUnwindMap$_ZN3std2fs14read_to_string17hef91c3c7a9dbd5aaE@IMGREL
	.long	0
	.long	0
	.long	3
	.long	$ip2state$_ZN3std2fs14read_to_string17hef91c3c7a9dbd5aaE@IMGREL
	.long	72
	.long	0
	.long	1
$stateUnwindMap$_ZN3std2fs14read_to_string17hef91c3c7a9dbd5aaE:
	.long	-1
	.long	"?dtor$1@?0?_ZN3std2fs14read_to_string17hef91c3c7a9dbd5aaE@4HA"@IMGREL
$ip2state$_ZN3std2fs14read_to_string17hef91c3c7a9dbd5aaE:
	.long	.Lfunc_begin5@IMGREL
	.long	-1
	.long	.Ltmp136@IMGREL+1
	.long	0
	.long	.Ltmp139@IMGREL+1
	.long	-1
	.section	.text,"xr",one_only,_ZN3std2fs14read_to_string17hef91c3c7a9dbd5aaE,unique,14

	.def	_ZN3std2fs5write17h654470301ff43382E;
	.scl	3;
	.type	32;
	.endef
	.section	.text,"xr",one_only,_ZN3std2fs5write17h654470301ff43382E,unique,15
	.p2align	4
_ZN3std2fs5write17h654470301ff43382E:
.Lfunc_begin6:
.seh_proc _ZN3std2fs5write17h654470301ff43382E
	.seh_handler __CxxFrameHandler3, @unwind, @except
	pushq	%rbp
	.seh_pushreg %rbp
	subq	$128, %rsp
	.seh_stackalloc 128
	leaq	128(%rsp), %rbp
	.seh_setframe %rbp, 128
	.seh_endprologue
	movq	$-2, -8(%rbp)
	movq	%r8, -48(%rbp)
	movq	%rcx, -24(%rbp)
	movq	%rdx, -16(%rbp)
.Ltmp140:
	leaq	-24(%rbp), %rcx
	callq	_ZN55_$LT$$RF$T$u20$as$u20$core..convert..AsRef$LT$U$GT$$GT$6as_ref17h7689ee4604bbae9dE
.Ltmp141:
	movq	%rdx, -40(%rbp)
	movq	%rax, -32(%rbp)
	jmp	.LBB15_2
.LBB15_2:
	movq	-48(%rbp), %rcx
	movq	-40(%rbp), %rax
	movq	-32(%rbp), %rdx
	movq	%rdx, -80(%rbp)
	movq	%rax, -72(%rbp)
.Ltmp142:
	callq	_ZN82_$LT$alloc..string..String$u20$as$u20$core..convert..AsRef$LT$$u5b$u8$u5d$$GT$$GT$6as_ref17h7624252523aaaa00E
.Ltmp143:
	movq	%rdx, -64(%rbp)
	movq	%rax, -56(%rbp)
	jmp	.LBB15_3
.LBB15_3:
.Ltmp144:
	movq	-64(%rbp), %r9
	movq	-56(%rbp), %r8
	movq	-72(%rbp), %rdx
	movq	-80(%rbp), %rcx
	callq	_ZN3std2fs5write5inner17h7a3d428c109de3f1E
.Ltmp145:
	movq	%rax, -88(%rbp)
	jmp	.LBB15_4
.LBB15_4:
.Ltmp146:
	movq	-48(%rbp), %rcx
	callq	_ZN4core3ptr42drop_in_place$LT$alloc..string..String$GT$17hefd3488d5dba1b13E
.Ltmp147:
	jmp	.LBB15_6
.LBB15_6:
	movq	-88(%rbp), %rax
	.seh_startepilogue
	addq	$128, %rsp
	popq	%rbp
	.seh_endepilogue
	retq
	.seh_handlerdata
	.long	$cppxdata$_ZN3std2fs5write17h654470301ff43382E@IMGREL
	.section	.text,"xr",one_only,_ZN3std2fs5write17h654470301ff43382E,unique,15
	.seh_endproc
	.def	"?dtor$1@?0?_ZN3std2fs5write17h654470301ff43382E@4HA";
	.scl	3;
	.type	32;
	.endef
	.p2align	4
"?dtor$1@?0?_ZN3std2fs5write17h654470301ff43382E@4HA":
.seh_proc "?dtor$1@?0?_ZN3std2fs5write17h654470301ff43382E@4HA"
.LBB15_1:
	movq	%rdx, 16(%rsp)
	pushq	%rbp
	.seh_pushreg %rbp
	subq	$32, %rsp
	.seh_stackalloc 32
	leaq	128(%rdx), %rbp
	.seh_endprologue
	movq	-48(%rbp), %rcx
	callq	_ZN4core3ptr42drop_in_place$LT$alloc..string..String$GT$17hefd3488d5dba1b13E
	nop
	.seh_startepilogue
	addq	$32, %rsp
	popq	%rbp
	.seh_endepilogue
	retq
	.seh_handlerdata
	.section	.text,"xr",one_only,_ZN3std2fs5write17h654470301ff43382E,unique,15
	.seh_endproc
	.def	"?dtor$5@?0?_ZN3std2fs5write17h654470301ff43382E@4HA";
	.scl	3;
	.type	32;
	.endef
	.p2align	4
"?dtor$5@?0?_ZN3std2fs5write17h654470301ff43382E@4HA":
.seh_proc "?dtor$5@?0?_ZN3std2fs5write17h654470301ff43382E@4HA"
.LBB15_5:
	movq	%rdx, 16(%rsp)
	pushq	%rbp
	.seh_pushreg %rbp
	subq	$32, %rsp
	.seh_stackalloc 32
	leaq	128(%rdx), %rbp
	.seh_endprologue
	.seh_startepilogue
	addq	$32, %rsp
	popq	%rbp
	.seh_endepilogue
	retq
.Lfunc_end6:
	.seh_handlerdata
	.section	.text,"xr",one_only,_ZN3std2fs5write17h654470301ff43382E,unique,15
	.seh_endproc
	.section	.xdata,"dr",associative,_ZN3std2fs5write17h654470301ff43382E,unique,6
	.p2align	2, 0x0
$cppxdata$_ZN3std2fs5write17h654470301ff43382E:
	.long	429065506
	.long	2
	.long	$stateUnwindMap$_ZN3std2fs5write17h654470301ff43382E@IMGREL
	.long	0
	.long	0
	.long	4
	.long	$ip2state$_ZN3std2fs5write17h654470301ff43382E@IMGREL
	.long	120
	.long	0
	.long	1
$stateUnwindMap$_ZN3std2fs5write17h654470301ff43382E:
	.long	-1
	.long	"?dtor$5@?0?_ZN3std2fs5write17h654470301ff43382E@4HA"@IMGREL
	.long	0
	.long	"?dtor$1@?0?_ZN3std2fs5write17h654470301ff43382E@4HA"@IMGREL
$ip2state$_ZN3std2fs5write17h654470301ff43382E:
	.long	.Lfunc_begin6@IMGREL
	.long	-1
	.long	.Ltmp140@IMGREL+1
	.long	1
	.long	.Ltmp146@IMGREL+1
	.long	0
	.long	.Ltmp147@IMGREL+1
	.long	-1
	.section	.text,"xr",one_only,_ZN3std2fs5write17h654470301ff43382E,unique,15

	.def	_ZN3std2io5error14repr_bitpacked11decode_repr17h675e6878fe815196E;
	.scl	3;
	.type	32;
	.endef
	.section	.text,"xr",one_only,_ZN3std2io5error14repr_bitpacked11decode_repr17h675e6878fe815196E,unique,16
	.p2align	4
_ZN3std2io5error14repr_bitpacked11decode_repr17h675e6878fe815196E:
.Lfunc_begin7:
.seh_proc _ZN3std2io5error14repr_bitpacked11decode_repr17h675e6878fe815196E
	.seh_handler __CxxFrameHandler3, @unwind, @except
	pushq	%rbp
	.seh_pushreg %rbp
	subq	$112, %rsp
	.seh_stackalloc 112
	leaq	112(%rsp), %rbp
	.seh_setframe %rbp, 112
	.seh_endprologue
	movq	$-2, -8(%rbp)
	movq	%rdx, -64(%rbp)
	movq	%rcx, -56(%rbp)
	movq	%rcx, -48(%rbp)
	movb	$1, -17(%rbp)
	movq	%rdx, %rax
	movq	%rax, -40(%rbp)
	movl	%edx, %eax
	andl	$3, %eax
	movq	%rax, -32(%rbp)
	subq	$3, %rax
	ja	.LBB16_1
	movq	-32(%rbp), %rcx
	leaq	.LJTI16_0(%rip), %rax
	movslq	(%rax,%rcx,4), %rcx
	addq	%rcx, %rax
	jmpq	*%rax
.LBB16_1:
.Ltmp152:
	leaq	anon.aea64e3d4c527d9b67f1a42df9b9b7d7.46(%rip), %rcx
	leaq	anon.aea64e3d4c527d9b67f1a42df9b9b7d7.47(%rip), %r8
	movl	$40, %edx
	callq	_ZN4core9panicking5panic17he55d2ef9c288ce95E
.Ltmp153:
	jmp	.LBB16_13
.LBB16_2:
	movq	-56(%rbp), %rax
	movq	-40(%rbp), %rcx
	sarq	$32, %rcx
	movl	%ecx, 4(%rax)
	movb	$0, (%rax)
	jmp	.LBB16_6
.LBB16_3:
	movq	-40(%rbp), %rax
	shrq	$32, %rax
	movl	%eax, %ecx
.Ltmp150:
	callq	_ZN3std2io5error14repr_bitpacked14kind_from_prim17h431275b7af524bc6E
.Ltmp151:
	movb	%al, -65(%rbp)
	jmp	.LBB16_8
.LBB16_4:
	movq	-56(%rbp), %rax
	movq	-64(%rbp), %rcx
	movq	%rcx, 8(%rax)
	movb	$2, (%rax)
	jmp	.LBB16_6
.LBB16_5:
	movq	-64(%rbp), %rax
	decq	%rax
	movq	%rax, -16(%rbp)
	movq	-16(%rbp), %rcx
	movb	$0, -17(%rbp)
.Ltmp148:
	callq	_ZN78_$LT$std..io..error..repr_bitpacked..Repr$u20$as$u20$core..ops..drop..Drop$GT$4drop28_$u7b$$u7b$closure$u7d$$u7d$17hd90a8fa36a3091aaE
.Ltmp149:
	movq	%rax, -80(%rbp)
	jmp	.LBB16_12
.LBB16_6:
	jmp	.LBB16_11
.LBB16_8:
	movb	-65(%rbp), %al
	movb	%al, -18(%rbp)
	movl	$1, %eax
	xorl	%ecx, %ecx
	cmpb	$42, -18(%rbp)
	cmoveq	%rcx, %rax
	testq	$1, %rax
	je	.LBB16_10
	movq	-56(%rbp), %rax
	movb	-18(%rbp), %cl
	movb	%cl, 1(%rax)
	movb	$1, (%rax)
	jmp	.LBB16_6
.LBB16_10:
	leaq	anon.aea64e3d4c527d9b67f1a42df9b9b7d7.45(%rip), %rcx
	callq	_ZN4core4hint21unreachable_unchecked18precondition_check17hf7764ed7709c938bE
	ud2
.LBB16_11:
	movq	-48(%rbp), %rax
	.seh_startepilogue
	addq	$112, %rsp
	popq	%rbp
	.seh_endepilogue
	retq
.LBB16_12:
	movq	-56(%rbp), %rax
	movq	-80(%rbp), %rcx
	movq	%rcx, 8(%rax)
	movb	$3, (%rax)
	jmp	.LBB16_11
.LBB16_13:
	ud2
	.seh_handlerdata
	.long	$cppxdata$_ZN3std2io5error14repr_bitpacked11decode_repr17h675e6878fe815196E@IMGREL
	.section	.text,"xr",one_only,_ZN3std2io5error14repr_bitpacked11decode_repr17h675e6878fe815196E,unique,16
	.seh_endproc
	.def	"?dtor$7@?0?_ZN3std2io5error14repr_bitpacked11decode_repr17h675e6878fe815196E@4HA";
	.scl	3;
	.type	32;
	.endef
	.p2align	4
"?dtor$7@?0?_ZN3std2io5error14repr_bitpacked11decode_repr17h675e6878fe815196E@4HA":
.seh_proc "?dtor$7@?0?_ZN3std2io5error14repr_bitpacked11decode_repr17h675e6878fe815196E@4HA"
.LBB16_7:
	movq	%rdx, 16(%rsp)
	pushq	%rbp
	.seh_pushreg %rbp
	subq	$32, %rsp
	.seh_stackalloc 32
	leaq	112(%rdx), %rbp
	.seh_endprologue
	testb	$1, -17(%rbp)
	jne	.LBB16_15
	jmp	.LBB16_14
.LBB16_14:
	.seh_startepilogue
	addq	$32, %rsp
	popq	%rbp
	.seh_endepilogue
	retq
.LBB16_15:
	jmp	.LBB16_14
.Lfunc_end7:
	.section	.rdata,"dr",associative,_ZN3std2io5error14repr_bitpacked11decode_repr17h675e6878fe815196E,unique,17
	.p2align	2, 0x0
.LJTI16_0:
	.long	.LBB16_4-.LJTI16_0
	.long	.LBB16_5-.LJTI16_0
	.long	.LBB16_2-.LJTI16_0
	.long	.LBB16_3-.LJTI16_0
	.seh_handlerdata
	.section	.text,"xr",one_only,_ZN3std2io5error14repr_bitpacked11decode_repr17h675e6878fe815196E,unique,16
	.seh_endproc
	.section	.xdata,"dr",associative,_ZN3std2io5error14repr_bitpacked11decode_repr17h675e6878fe815196E,unique,7
	.p2align	2, 0x0
$cppxdata$_ZN3std2io5error14repr_bitpacked11decode_repr17h675e6878fe815196E:
	.long	429065506
	.long	1
	.long	$stateUnwindMap$_ZN3std2io5error14repr_bitpacked11decode_repr17h675e6878fe815196E@IMGREL
	.long	0
	.long	0
	.long	3
	.long	$ip2state$_ZN3std2io5error14repr_bitpacked11decode_repr17h675e6878fe815196E@IMGREL
	.long	104
	.long	0
	.long	1
$stateUnwindMap$_ZN3std2io5error14repr_bitpacked11decode_repr17h675e6878fe815196E:
	.long	-1
	.long	"?dtor$7@?0?_ZN3std2io5error14repr_bitpacked11decode_repr17h675e6878fe815196E@4HA"@IMGREL
$ip2state$_ZN3std2io5error14repr_bitpacked11decode_repr17h675e6878fe815196E:
	.long	.Lfunc_begin7@IMGREL
	.long	-1
	.long	.Ltmp152@IMGREL+1
	.long	0
	.long	.Ltmp149@IMGREL+1
	.long	-1
	.section	.text,"xr",one_only,_ZN3std2io5error14repr_bitpacked11decode_repr17h675e6878fe815196E,unique,16

	.def	_ZN3std2io5error14repr_bitpacked14kind_from_prim17h431275b7af524bc6E;
	.scl	3;
	.type	32;
	.endef
	.section	.text,"xr",one_only,_ZN3std2io5error14repr_bitpacked14kind_from_prim17h431275b7af524bc6E,unique,18
	.p2align	4
_ZN3std2io5error14repr_bitpacked14kind_from_prim17h431275b7af524bc6E:
.seh_proc _ZN3std2io5error14repr_bitpacked14kind_from_prim17h431275b7af524bc6E
	pushq	%rax
	.seh_stackalloc 8
	.seh_endprologue
	movl	%ecx, (%rsp)
	cmpl	$0, %ecx
	jne	.LBB17_2
	movb	$0, 7(%rsp)
	jmp	.LBB17_3
.LBB17_2:
	movl	(%rsp), %eax
	cmpl	$1, %eax
	je	.LBB17_4
	jmp	.LBB17_5
.LBB17_3:
	movb	7(%rsp), %al
	.seh_startepilogue
	popq	%rcx
	.seh_endepilogue
	retq
.LBB17_4:
	movb	$1, 7(%rsp)
	jmp	.LBB17_3
.LBB17_5:
	movl	(%rsp), %eax
	cmpl	$2, %eax
	jne	.LBB17_7
	movb	$2, 7(%rsp)
	jmp	.LBB17_3
.LBB17_7:
	movl	(%rsp), %eax
	cmpl	$3, %eax
	jne	.LBB17_9
	movb	$3, 7(%rsp)
	jmp	.LBB17_3
.LBB17_9:
	movl	(%rsp), %eax
	cmpl	$4, %eax
	jne	.LBB17_11
	movb	$4, 7(%rsp)
	jmp	.LBB17_3
.LBB17_11:
	movl	(%rsp), %eax
	cmpl	$5, %eax
	jne	.LBB17_13
	movb	$5, 7(%rsp)
	jmp	.LBB17_3
.LBB17_13:
	movl	(%rsp), %eax
	cmpl	$6, %eax
	jne	.LBB17_15
	movb	$6, 7(%rsp)
	jmp	.LBB17_3
.LBB17_15:
	movl	(%rsp), %eax
	cmpl	$7, %eax
	jne	.LBB17_17
	movb	$7, 7(%rsp)
	jmp	.LBB17_3
.LBB17_17:
	movl	(%rsp), %eax
	cmpl	$8, %eax
	jne	.LBB17_19
	movb	$8, 7(%rsp)
	jmp	.LBB17_3
.LBB17_19:
	movl	(%rsp), %eax
	cmpl	$9, %eax
	jne	.LBB17_21
	movb	$9, 7(%rsp)
	jmp	.LBB17_3
.LBB17_21:
	movl	(%rsp), %eax
	cmpl	$10, %eax
	jne	.LBB17_23
	movb	$10, 7(%rsp)
	jmp	.LBB17_3
.LBB17_23:
	movl	(%rsp), %eax
	cmpl	$11, %eax
	jne	.LBB17_25
	movb	$11, 7(%rsp)
	jmp	.LBB17_3
.LBB17_25:
	movl	(%rsp), %eax
	cmpl	$12, %eax
	jne	.LBB17_27
	movb	$12, 7(%rsp)
	jmp	.LBB17_3
.LBB17_27:
	movl	(%rsp), %eax
	cmpl	$13, %eax
	jne	.LBB17_29
	movb	$13, 7(%rsp)
	jmp	.LBB17_3
.LBB17_29:
	movl	(%rsp), %eax
	cmpl	$14, %eax
	jne	.LBB17_31
	movb	$14, 7(%rsp)
	jmp	.LBB17_3
.LBB17_31:
	movl	(%rsp), %eax
	cmpl	$15, %eax
	jne	.LBB17_33
	movb	$15, 7(%rsp)
	jmp	.LBB17_3
.LBB17_33:
	movl	(%rsp), %eax
	cmpl	$16, %eax
	jne	.LBB17_35
	movb	$16, 7(%rsp)
	jmp	.LBB17_3
.LBB17_35:
	movl	(%rsp), %eax
	cmpl	$17, %eax
	jne	.LBB17_37
	movb	$17, 7(%rsp)
	jmp	.LBB17_3
.LBB17_37:
	movl	(%rsp), %eax
	cmpl	$18, %eax
	jne	.LBB17_39
	movb	$18, 7(%rsp)
	jmp	.LBB17_3
.LBB17_39:
	movl	(%rsp), %eax
	cmpl	$19, %eax
	jne	.LBB17_41
	movb	$19, 7(%rsp)
	jmp	.LBB17_3
.LBB17_41:
	movl	(%rsp), %eax
	cmpl	$20, %eax
	jne	.LBB17_43
	movb	$20, 7(%rsp)
	jmp	.LBB17_3
.LBB17_43:
	movl	(%rsp), %eax
	cmpl	$21, %eax
	jne	.LBB17_45
	movb	$21, 7(%rsp)
	jmp	.LBB17_3
.LBB17_45:
	movl	(%rsp), %eax
	cmpl	$22, %eax
	jne	.LBB17_47
	movb	$22, 7(%rsp)
	jmp	.LBB17_3
.LBB17_47:
	movl	(%rsp), %eax
	cmpl	$23, %eax
	jne	.LBB17_49
	movb	$23, 7(%rsp)
	jmp	.LBB17_3
.LBB17_49:
	movl	(%rsp), %eax
	cmpl	$24, %eax
	jne	.LBB17_51
	movb	$24, 7(%rsp)
	jmp	.LBB17_3
.LBB17_51:
	movl	(%rsp), %eax
	cmpl	$25, %eax
	jne	.LBB17_53
	movb	$25, 7(%rsp)
	jmp	.LBB17_3
.LBB17_53:
	movl	(%rsp), %eax
	cmpl	$26, %eax
	jne	.LBB17_55
	movb	$26, 7(%rsp)
	jmp	.LBB17_3
.LBB17_55:
	movl	(%rsp), %eax
	cmpl	$27, %eax
	jne	.LBB17_57
	movb	$27, 7(%rsp)
	jmp	.LBB17_3
.LBB17_57:
	movl	(%rsp), %eax
	cmpl	$28, %eax
	jne	.LBB17_59
	movb	$28, 7(%rsp)
	jmp	.LBB17_3
.LBB17_59:
	movl	(%rsp), %eax
	cmpl	$29, %eax
	jne	.LBB17_61
	movb	$29, 7(%rsp)
	jmp	.LBB17_3
.LBB17_61:
	movl	(%rsp), %eax
	cmpl	$30, %eax
	jne	.LBB17_63
	movb	$30, 7(%rsp)
	jmp	.LBB17_3
.LBB17_63:
	movl	(%rsp), %eax
	cmpl	$31, %eax
	jne	.LBB17_65
	movb	$31, 7(%rsp)
	jmp	.LBB17_3
.LBB17_65:
	movl	(%rsp), %eax
	cmpl	$32, %eax
	jne	.LBB17_67
	movb	$32, 7(%rsp)
	jmp	.LBB17_3
.LBB17_67:
	movl	(%rsp), %eax
	cmpl	$33, %eax
	jne	.LBB17_69
	movb	$33, 7(%rsp)
	jmp	.LBB17_3
.LBB17_69:
	movl	(%rsp), %eax
	cmpl	$34, %eax
	jne	.LBB17_71
	movb	$34, 7(%rsp)
	jmp	.LBB17_3
.LBB17_71:
	movl	(%rsp), %eax
	cmpl	$35, %eax
	jne	.LBB17_73
	movb	$35, 7(%rsp)
	jmp	.LBB17_3
.LBB17_73:
	movl	(%rsp), %eax
	cmpl	$40, %eax
	jne	.LBB17_75
	movb	$40, 7(%rsp)
	jmp	.LBB17_3
.LBB17_75:
	movl	(%rsp), %eax
	cmpl	$37, %eax
	jne	.LBB17_77
	movb	$37, 7(%rsp)
	jmp	.LBB17_3
.LBB17_77:
	movl	(%rsp), %eax
	cmpl	$36, %eax
	jne	.LBB17_79
	movb	$36, 7(%rsp)
	jmp	.LBB17_3
.LBB17_79:
	movl	(%rsp), %eax
	cmpl	$38, %eax
	jne	.LBB17_81
	movb	$38, 7(%rsp)
	jmp	.LBB17_3
.LBB17_81:
	movl	(%rsp), %eax
	cmpl	$39, %eax
	jne	.LBB17_83
	movb	$39, 7(%rsp)
	jmp	.LBB17_3
.LBB17_83:
	movl	(%rsp), %eax
	cmpl	$41, %eax
	jne	.LBB17_85
	movb	$41, 7(%rsp)
	jmp	.LBB17_3
.LBB17_85:
	movb	$42, 7(%rsp)
	jmp	.LBB17_3
	.seh_endproc

	.def	_ZN3std2rt10lang_start17h5cf69c0f2a726987E;
	.scl	2;
	.type	32;
	.endef
	.section	.text,"xr",one_only,_ZN3std2rt10lang_start17h5cf69c0f2a726987E,unique,19
	.globl	_ZN3std2rt10lang_start17h5cf69c0f2a726987E
	.p2align	4
_ZN3std2rt10lang_start17h5cf69c0f2a726987E:
.seh_proc _ZN3std2rt10lang_start17h5cf69c0f2a726987E
	subq	$56, %rsp
	.seh_stackalloc 56
	.seh_endprologue
	movb	%r9b, %al
	movq	%r8, %r9
	movq	%rdx, %r8
	movq	%rcx, 48(%rsp)
	leaq	48(%rsp), %rcx
	leaq	anon.aea64e3d4c527d9b67f1a42df9b9b7d7.48(%rip), %rdx
	movb	%al, 32(%rsp)
	callq	_ZN3std2rt19lang_start_internal17hc950804ffdd6131dE
	nop
	.seh_startepilogue
	addq	$56, %rsp
	.seh_endepilogue
	retq
	.seh_endproc

	.def	_ZN3std2rt10lang_start28_$u7b$$u7b$closure$u7d$$u7d$17hc2298b9bb5f17913E;
	.scl	3;
	.type	32;
	.endef
	.section	.text,"xr",one_only,_ZN3std2rt10lang_start28_$u7b$$u7b$closure$u7d$$u7d$17hc2298b9bb5f17913E,unique,20
	.p2align	4
_ZN3std2rt10lang_start28_$u7b$$u7b$closure$u7d$$u7d$17hc2298b9bb5f17913E:
.seh_proc _ZN3std2rt10lang_start28_$u7b$$u7b$closure$u7d$$u7d$17hc2298b9bb5f17913E
	subq	$40, %rsp
	.seh_stackalloc 40
	.seh_endprologue
	movq	(%rcx), %rcx
	callq	_ZN3std3sys9backtrace28__rust_begin_short_backtrace17h495b6d674c295247E
	callq	_ZN54_$LT$$LP$$RP$$u20$as$u20$std..process..Termination$GT$6report17h6b887efd13e28bebE
	nop
	.seh_startepilogue
	addq	$40, %rsp
	.seh_endepilogue
	retq
	.seh_endproc

	.def	_ZN3std3ffi6os_str103_$LT$impl$u20$core..convert..AsRef$LT$std..ffi..os_str..OsStr$GT$$u20$for$u20$alloc..string..String$GT$6as_ref17hec75ba2bfb468477E;
	.scl	3;
	.type	32;
	.endef
	.section	.text,"xr",one_only,_ZN3std3ffi6os_str103_$LT$impl$u20$core..convert..AsRef$LT$std..ffi..os_str..OsStr$GT$$u20$for$u20$alloc..string..String$GT$6as_ref17hec75ba2bfb468477E,unique,21
	.p2align	4
_ZN3std3ffi6os_str103_$LT$impl$u20$core..convert..AsRef$LT$std..ffi..os_str..OsStr$GT$$u20$for$u20$alloc..string..String$GT$6as_ref17hec75ba2bfb468477E:
.seh_proc _ZN3std3ffi6os_str103_$LT$impl$u20$core..convert..AsRef$LT$std..ffi..os_str..OsStr$GT$$u20$for$u20$alloc..string..String$GT$6as_ref17hec75ba2bfb468477E
	subq	$56, %rsp
	.seh_stackalloc 56
	.seh_endprologue
	movq	8(%rcx), %rax
	movq	%rax, 40(%rsp)
	movq	16(%rcx), %rax
	movq	%rax, 48(%rsp)
	movq	48(%rsp), %r9
	movq	40(%rsp), %rcx
	movl	$1, %r8d
	leaq	anon.aea64e3d4c527d9b67f1a42df9b9b7d7.49(%rip), %rax
	movq	%r8, %rdx
	movq	%rax, 32(%rsp)
	callq	_ZN4core5slice3raw14from_raw_parts18precondition_check17h88512fbb981fe93cE
	movq	48(%rsp), %rdx
	movq	40(%rsp), %rax
	.seh_startepilogue
	addq	$56, %rsp
	.seh_endepilogue
	retq
	.seh_endproc

	.def	_ZN3std3ffi6os_str85_$LT$impl$u20$core..convert..AsRef$LT$std..ffi..os_str..OsStr$GT$$u20$for$u20$str$GT$6as_ref17hdbaf0cb50121c9faE;
	.scl	3;
	.type	32;
	.endef
	.section	.text,"xr",one_only,_ZN3std3ffi6os_str85_$LT$impl$u20$core..convert..AsRef$LT$std..ffi..os_str..OsStr$GT$$u20$for$u20$str$GT$6as_ref17hdbaf0cb50121c9faE,unique,22
	.p2align	4
_ZN3std3ffi6os_str85_$LT$impl$u20$core..convert..AsRef$LT$std..ffi..os_str..OsStr$GT$$u20$for$u20$str$GT$6as_ref17hdbaf0cb50121c9faE:
	movq	%rcx, %rax
	retq

	.def	_ZN3std3sys9backtrace28__rust_begin_short_backtrace17h495b6d674c295247E;
	.scl	3;
	.type	32;
	.endef
	.section	.text,"xr",one_only,_ZN3std3sys9backtrace28__rust_begin_short_backtrace17h495b6d674c295247E,unique,23
	.p2align	4
_ZN3std3sys9backtrace28__rust_begin_short_backtrace17h495b6d674c295247E:
.seh_proc _ZN3std3sys9backtrace28__rust_begin_short_backtrace17h495b6d674c295247E
	subq	$40, %rsp
	.seh_stackalloc 40
	.seh_endprologue
	callq	_ZN4core3ops8function6FnOnce9call_once17hd89f3a139cd357a0E
	#APP
	#NO_APP
	nop
	.seh_startepilogue
	addq	$40, %rsp
	.seh_endepilogue
	retq
	.seh_endproc

	.def	_ZN3std4path77_$LT$impl$u20$core..convert..AsRef$LT$std..path..Path$GT$$u20$for$u20$str$GT$6as_ref17h03e912f3ec4dc4bfE;
	.scl	3;
	.type	32;
	.endef
	.section	.text,"xr",one_only,_ZN3std4path77_$LT$impl$u20$core..convert..AsRef$LT$std..path..Path$GT$$u20$for$u20$str$GT$6as_ref17h03e912f3ec4dc4bfE,unique,24
	.p2align	4
_ZN3std4path77_$LT$impl$u20$core..convert..AsRef$LT$std..path..Path$GT$$u20$for$u20$str$GT$6as_ref17h03e912f3ec4dc4bfE:
.seh_proc _ZN3std4path77_$LT$impl$u20$core..convert..AsRef$LT$std..path..Path$GT$$u20$for$u20$str$GT$6as_ref17h03e912f3ec4dc4bfE
	subq	$40, %rsp
	.seh_stackalloc 40
	.seh_endprologue
	callq	_ZN3std3ffi6os_str85_$LT$impl$u20$core..convert..AsRef$LT$std..ffi..os_str..OsStr$GT$$u20$for$u20$str$GT$6as_ref17hdbaf0cb50121c9faE
	nop
	.seh_startepilogue
	addq	$40, %rsp
	.seh_endepilogue
	retq
	.seh_endproc

	.def	_ZN3std4path95_$LT$impl$u20$core..convert..AsRef$LT$std..path..Path$GT$$u20$for$u20$alloc..string..String$GT$6as_ref17h04f51880829a8195E;
	.scl	3;
	.type	32;
	.endef
	.section	.text,"xr",one_only,_ZN3std4path95_$LT$impl$u20$core..convert..AsRef$LT$std..path..Path$GT$$u20$for$u20$alloc..string..String$GT$6as_ref17h04f51880829a8195E,unique,25
	.p2align	4
_ZN3std4path95_$LT$impl$u20$core..convert..AsRef$LT$std..path..Path$GT$$u20$for$u20$alloc..string..String$GT$6as_ref17h04f51880829a8195E:
.seh_proc _ZN3std4path95_$LT$impl$u20$core..convert..AsRef$LT$std..path..Path$GT$$u20$for$u20$alloc..string..String$GT$6as_ref17h04f51880829a8195E
	subq	$40, %rsp
	.seh_stackalloc 40
	.seh_endprologue
	callq	_ZN3std3ffi6os_str103_$LT$impl$u20$core..convert..AsRef$LT$std..ffi..os_str..OsStr$GT$$u20$for$u20$alloc..string..String$GT$6as_ref17hec75ba2bfb468477E
	nop
	.seh_startepilogue
	addq	$40, %rsp
	.seh_endepilogue
	retq
	.seh_endproc

	.def	_ZN4core10intrinsics9cold_path17hf00b4ddd61f796a0E;
	.scl	3;
	.type	32;
	.endef
	.section	.text,"xr",one_only,_ZN4core10intrinsics9cold_path17hf00b4ddd61f796a0E,unique,26
	.p2align	4
_ZN4core10intrinsics9cold_path17hf00b4ddd61f796a0E:
	retq

	.def	_ZN4core3cmp3Ord3max17hcd4faa3b104f5a0bE;
	.scl	3;
	.type	32;
	.endef
	.section	.text,"xr",one_only,_ZN4core3cmp3Ord3max17hcd4faa3b104f5a0bE,unique,27
	.p2align	4
_ZN4core3cmp3Ord3max17hcd4faa3b104f5a0bE:
.seh_proc _ZN4core3cmp3Ord3max17hcd4faa3b104f5a0bE
	subq	$32, %rsp
	.seh_stackalloc 32
	.seh_endprologue
	movq	%rcx, (%rsp)
	movq	%rdx, 8(%rsp)
	movb	$1, 31(%rsp)
	movq	8(%rsp), %rax
	cmpq	(%rsp), %rax
	jb	.LBB26_2
	movq	8(%rsp), %rax
	movq	%rax, 16(%rsp)
	testb	$1, 31(%rsp)
	jne	.LBB26_4
	jmp	.LBB26_3
.LBB26_2:
	movb	$0, 31(%rsp)
	movq	(%rsp), %rax
	movq	%rax, 16(%rsp)
.LBB26_3:
	movq	16(%rsp), %rax
	.seh_startepilogue
	addq	$32, %rsp
	.seh_endepilogue
	retq
.LBB26_4:
	jmp	.LBB26_3
	.seh_endproc

	.def	_ZN4core3cmp5impls69_$LT$impl$u20$core..cmp..PartialEq$LT$$RF$B$GT$$u20$for$u20$$RF$A$GT$2eq17h77753ba1b5172f1fE;
	.scl	3;
	.type	32;
	.endef
	.section	.text,"xr",one_only,_ZN4core3cmp5impls69_$LT$impl$u20$core..cmp..PartialEq$LT$$RF$B$GT$$u20$for$u20$$RF$A$GT$2eq17h77753ba1b5172f1fE,unique,28
	.p2align	4
_ZN4core3cmp5impls69_$LT$impl$u20$core..cmp..PartialEq$LT$$RF$B$GT$$u20$for$u20$$RF$A$GT$2eq17h77753ba1b5172f1fE:
.seh_proc _ZN4core3cmp5impls69_$LT$impl$u20$core..cmp..PartialEq$LT$$RF$B$GT$$u20$for$u20$$RF$A$GT$2eq17h77753ba1b5172f1fE
	subq	$40, %rsp
	.seh_stackalloc 40
	.seh_endprologue
	movq	%rdx, %rax
	movq	%rcx, %rdx
	movq	(%rdx), %rcx
	movq	8(%rdx), %rdx
	movq	(%rax), %r8
	movq	8(%rax), %r9
	callq	_ZN4core3str6traits54_$LT$impl$u20$core..cmp..PartialEq$u20$for$u20$str$GT$2eq17h3b286854ac1152c8E
	andb	$1, %al
	.seh_startepilogue
	addq	$40, %rsp
	.seh_endepilogue
	retq
	.seh_endproc

	.def	_ZN4core3cmp5impls69_$LT$impl$u20$core..cmp..PartialEq$LT$$RF$B$GT$$u20$for$u20$$RF$A$GT$2ne17h1bb6a18e5c1a5ebdE;
	.scl	3;
	.type	32;
	.endef
	.section	.text,"xr",one_only,_ZN4core3cmp5impls69_$LT$impl$u20$core..cmp..PartialEq$LT$$RF$B$GT$$u20$for$u20$$RF$A$GT$2ne17h1bb6a18e5c1a5ebdE,unique,29
	.p2align	4
_ZN4core3cmp5impls69_$LT$impl$u20$core..cmp..PartialEq$LT$$RF$B$GT$$u20$for$u20$$RF$A$GT$2ne17h1bb6a18e5c1a5ebdE:
.seh_proc _ZN4core3cmp5impls69_$LT$impl$u20$core..cmp..PartialEq$LT$$RF$B$GT$$u20$for$u20$$RF$A$GT$2ne17h1bb6a18e5c1a5ebdE
	subq	$40, %rsp
	.seh_stackalloc 40
	.seh_endprologue
	movq	%rdx, %rax
	movq	%rcx, %rdx
	movq	(%rdx), %rcx
	movq	8(%rdx), %rdx
	movq	(%rax), %r8
	movq	8(%rax), %r9
	callq	_ZN4core3cmp9PartialEq2ne17h135649ca29980c70E
	andb	$1, %al
	.seh_startepilogue
	addq	$40, %rsp
	.seh_endepilogue
	retq
	.seh_endproc

	.def	_ZN4core3cmp9PartialEq2ne17h135649ca29980c70E;
	.scl	3;
	.type	32;
	.endef
	.section	.text,"xr",one_only,_ZN4core3cmp9PartialEq2ne17h135649ca29980c70E,unique,30
	.p2align	4
_ZN4core3cmp9PartialEq2ne17h135649ca29980c70E:
.seh_proc _ZN4core3cmp9PartialEq2ne17h135649ca29980c70E
	subq	$40, %rsp
	.seh_stackalloc 40
	.seh_endprologue
	callq	_ZN4core3str6traits54_$LT$impl$u20$core..cmp..PartialEq$u20$for$u20$str$GT$2eq17h3b286854ac1152c8E
	xorb	$-1, %al
	andb	$1, %al
	.seh_startepilogue
	addq	$40, %rsp
	.seh_endepilogue
	retq
	.seh_endproc

	.def	_ZN4core3fmt2rt38_$LT$impl$u20$core..fmt..Arguments$GT$6new_v117h00cce94498e5b2b1E;
	.scl	3;
	.type	32;
	.endef
	.section	.text,"xr",one_only,_ZN4core3fmt2rt38_$LT$impl$u20$core..fmt..Arguments$GT$6new_v117h00cce94498e5b2b1E,unique,31
	.p2align	4
_ZN4core3fmt2rt38_$LT$impl$u20$core..fmt..Arguments$GT$6new_v117h00cce94498e5b2b1E:
	movq	%rcx, %rax
	movq	%rdx, (%rcx)
	movq	$2, 8(%rcx)
	movq	anon.aea64e3d4c527d9b67f1a42df9b9b7d7.1(%rip), %r9
	movq	anon.aea64e3d4c527d9b67f1a42df9b9b7d7.1+8(%rip), %rdx
	movq	%r9, 32(%rcx)
	movq	%rdx, 40(%rcx)
	movq	%r8, 16(%rcx)
	movq	$1, 24(%rcx)
	retq

	.def	_ZN4core3fmt2rt38_$LT$impl$u20$core..fmt..Arguments$GT$6new_v117h9fbd1865f763f7d2E;
	.scl	3;
	.type	32;
	.endef
	.section	.text,"xr",one_only,_ZN4core3fmt2rt38_$LT$impl$u20$core..fmt..Arguments$GT$6new_v117h9fbd1865f763f7d2E,unique,32
	.p2align	4
_ZN4core3fmt2rt38_$LT$impl$u20$core..fmt..Arguments$GT$6new_v117h9fbd1865f763f7d2E:
	movq	%rcx, %rax
	movq	%rdx, (%rcx)
	movq	$3, 8(%rcx)
	movq	anon.aea64e3d4c527d9b67f1a42df9b9b7d7.1(%rip), %r9
	movq	anon.aea64e3d4c527d9b67f1a42df9b9b7d7.1+8(%rip), %rdx
	movq	%r9, 32(%rcx)
	movq	%rdx, 40(%rcx)
	movq	%r8, 16(%rcx)
	movq	$2, 24(%rcx)
	retq

	.def	_ZN4core3fmt2rt8Argument11new_display17h0bdf4c352391fe4fE;
	.scl	3;
	.type	32;
	.endef
	.section	.text,"xr",one_only,_ZN4core3fmt2rt8Argument11new_display17h0bdf4c352391fe4fE,unique,33
	.p2align	4
_ZN4core3fmt2rt8Argument11new_display17h0bdf4c352391fe4fE:
.seh_proc _ZN4core3fmt2rt8Argument11new_display17h0bdf4c352391fe4fE
	subq	$16, %rsp
	.seh_stackalloc 16
	.seh_endprologue
	movq	%rcx, %rax
	movq	%rdx, (%rsp)
	leaq	_ZN44_$LT$$RF$T$u20$as$u20$core..fmt..Display$GT$3fmt17h117dd68b6d16c1ffE(%rip), %rdx
	movq	%rdx, 8(%rsp)
	movq	(%rsp), %rdx
	movq	%rdx, (%rcx)
	movq	8(%rsp), %rdx
	movq	%rdx, 8(%rcx)
	.seh_startepilogue
	addq	$16, %rsp
	.seh_endepilogue
	retq
	.seh_endproc

	.def	_ZN4core3fmt2rt8Argument11new_display17h1cb3da2d6af2fd99E;
	.scl	3;
	.type	32;
	.endef
	.section	.text,"xr",one_only,_ZN4core3fmt2rt8Argument11new_display17h1cb3da2d6af2fd99E,unique,34
	.p2align	4
_ZN4core3fmt2rt8Argument11new_display17h1cb3da2d6af2fd99E:
.seh_proc _ZN4core3fmt2rt8Argument11new_display17h1cb3da2d6af2fd99E
	subq	$16, %rsp
	.seh_stackalloc 16
	.seh_endprologue
	movq	%rcx, %rax
	movq	%rdx, (%rsp)
	leaq	_ZN60_$LT$alloc..string..String$u20$as$u20$core..fmt..Display$GT$3fmt17h0f79d7df750e884cE(%rip), %rdx
	movq	%rdx, 8(%rsp)
	movq	(%rsp), %rdx
	movq	%rdx, (%rcx)
	movq	8(%rsp), %rdx
	movq	%rdx, 8(%rcx)
	.seh_startepilogue
	addq	$16, %rsp
	.seh_endepilogue
	retq
	.seh_endproc

	.def	_ZN4core3num23_$LT$impl$u20$usize$GT$11checked_add17h25cc268be3d8b070E;
	.scl	3;
	.type	32;
	.endef
	.section	.text,"xr",one_only,_ZN4core3num23_$LT$impl$u20$usize$GT$11checked_add17h25cc268be3d8b070E,unique,35
	.p2align	4
_ZN4core3num23_$LT$impl$u20$usize$GT$11checked_add17h25cc268be3d8b070E:
.seh_proc _ZN4core3num23_$LT$impl$u20$usize$GT$11checked_add17h25cc268be3d8b070E
	subq	$32, %rsp
	.seh_stackalloc 32
	.seh_endprologue
	movq	%rdx, (%rsp)
	movq	%rcx, %rax
	movq	%rax, 8(%rsp)
	movq	%rax, %rcx
	addq	%rdx, %rcx
	cmpq	%rax, %rcx
	jb	.LBB34_2
	movq	(%rsp), %rcx
	movq	8(%rsp), %rax
	addq	%rcx, %rax
	movq	%rax, 24(%rsp)
	movq	$1, 16(%rsp)
	jmp	.LBB34_3
.LBB34_2:
	movq	anon.aea64e3d4c527d9b67f1a42df9b9b7d7.1(%rip), %rcx
	movq	anon.aea64e3d4c527d9b67f1a42df9b9b7d7.1+8(%rip), %rax
	movq	%rcx, 16(%rsp)
	movq	%rax, 24(%rsp)
.LBB34_3:
	movq	16(%rsp), %rax
	movq	24(%rsp), %rdx
	.seh_startepilogue
	addq	$32, %rsp
	.seh_endepilogue
	retq
	.seh_endproc

	.def	_ZN4core3num23_$LT$impl$u20$usize$GT$13unchecked_add18precondition_check17h6ba710b47a281438E;
	.scl	3;
	.type	32;
	.endef
	.section	.text,"xr",one_only,_ZN4core3num23_$LT$impl$u20$usize$GT$13unchecked_add18precondition_check17h6ba710b47a281438E,unique,36
	.p2align	4
_ZN4core3num23_$LT$impl$u20$usize$GT$13unchecked_add18precondition_check17h6ba710b47a281438E:
.seh_proc _ZN4core3num23_$LT$impl$u20$usize$GT$13unchecked_add18precondition_check17h6ba710b47a281438E
	subq	$104, %rsp
	.seh_stackalloc 104
	.seh_endprologue
	movq	%r8, 32(%rsp)
	movq	%rcx, %rax
	movq	%rax, %rcx
	addq	%rdx, %rcx
	cmpq	%rax, %rcx
	jb	.LBB35_2
	.seh_startepilogue
	addq	$104, %rsp
	.seh_endepilogue
	retq
.LBB35_2:
	movq	32(%rsp), %r8
	leaq	anon.aea64e3d4c527d9b67f1a42df9b9b7d7.50(%rip), %rax
	movq	%rax, 88(%rsp)
	movq	$186, 96(%rsp)
	leaq	88(%rsp), %rax
	movq	%rax, 40(%rsp)
	movq	$1, 48(%rsp)
	movq	anon.aea64e3d4c527d9b67f1a42df9b9b7d7.1(%rip), %rcx
	movq	anon.aea64e3d4c527d9b67f1a42df9b9b7d7.1+8(%rip), %rax
	movq	%rcx, 72(%rsp)
	movq	%rax, 80(%rsp)
	movl	$8, %eax
	movq	%rax, 56(%rsp)
	movq	$0, 64(%rsp)
	leaq	40(%rsp), %rcx
	xorl	%edx, %edx
	callq	_ZN4core9panicking18panic_nounwind_fmt17h93b15706b0f16961E
	int3
	.seh_endproc

	.def	_ZN4core3num23_$LT$impl$u20$usize$GT$13unchecked_mul18precondition_check17hd528b1a59e0cfd33E;
	.scl	3;
	.type	32;
	.endef
	.section	.text,"xr",one_only,_ZN4core3num23_$LT$impl$u20$usize$GT$13unchecked_mul18precondition_check17hd528b1a59e0cfd33E,unique,37
	.p2align	4
_ZN4core3num23_$LT$impl$u20$usize$GT$13unchecked_mul18precondition_check17hd528b1a59e0cfd33E:
.seh_proc _ZN4core3num23_$LT$impl$u20$usize$GT$13unchecked_mul18precondition_check17hd528b1a59e0cfd33E
	subq	$104, %rsp
	.seh_stackalloc 104
	.seh_endprologue
	movq	%r8, 32(%rsp)
	movq	%rcx, %rax
	mulq	%rdx
	seto	%al
	jo	.LBB36_2
	.seh_startepilogue
	addq	$104, %rsp
	.seh_endepilogue
	retq
.LBB36_2:
	movq	32(%rsp), %r8
	leaq	anon.aea64e3d4c527d9b67f1a42df9b9b7d7.51(%rip), %rax
	movq	%rax, 88(%rsp)
	movq	$186, 96(%rsp)
	leaq	88(%rsp), %rax
	movq	%rax, 40(%rsp)
	movq	$1, 48(%rsp)
	movq	anon.aea64e3d4c527d9b67f1a42df9b9b7d7.1(%rip), %rcx
	movq	anon.aea64e3d4c527d9b67f1a42df9b9b7d7.1+8(%rip), %rax
	movq	%rcx, 72(%rsp)
	movq	%rax, 80(%rsp)
	movl	$8, %eax
	movq	%rax, 56(%rsp)
	movq	$0, 64(%rsp)
	leaq	40(%rsp), %rcx
	xorl	%edx, %edx
	callq	_ZN4core9panicking18panic_nounwind_fmt17h93b15706b0f16961E
	int3
	.seh_endproc

	.def	_ZN4core3num23_$LT$impl$u20$usize$GT$13unchecked_sub18precondition_check17h2f99a343540fa8b7E;
	.scl	3;
	.type	32;
	.endef
	.section	.text,"xr",one_only,_ZN4core3num23_$LT$impl$u20$usize$GT$13unchecked_sub18precondition_check17h2f99a343540fa8b7E,unique,38
	.p2align	4
_ZN4core3num23_$LT$impl$u20$usize$GT$13unchecked_sub18precondition_check17h2f99a343540fa8b7E:
.seh_proc _ZN4core3num23_$LT$impl$u20$usize$GT$13unchecked_sub18precondition_check17h2f99a343540fa8b7E
	subq	$104, %rsp
	.seh_stackalloc 104
	.seh_endprologue
	movq	%r8, 32(%rsp)
	cmpq	%rdx, %rcx
	jb	.LBB37_2
	.seh_startepilogue
	addq	$104, %rsp
	.seh_endepilogue
	retq
.LBB37_2:
	movq	32(%rsp), %r8
	leaq	anon.aea64e3d4c527d9b67f1a42df9b9b7d7.52(%rip), %rax
	movq	%rax, 88(%rsp)
	movq	$186, 96(%rsp)
	leaq	88(%rsp), %rax
	movq	%rax, 40(%rsp)
	movq	$1, 48(%rsp)
	movq	anon.aea64e3d4c527d9b67f1a42df9b9b7d7.1(%rip), %rcx
	movq	anon.aea64e3d4c527d9b67f1a42df9b9b7d7.1+8(%rip), %rax
	movq	%rcx, 72(%rsp)
	movq	%rax, 80(%rsp)
	movl	$8, %eax
	movq	%rax, 56(%rsp)
	movq	$0, 64(%rsp)
	leaq	40(%rsp), %rcx
	xorl	%edx, %edx
	callq	_ZN4core9panicking18panic_nounwind_fmt17h93b15706b0f16961E
	int3
	.seh_endproc

	.def	_ZN4core3ops8function5FnMut8call_mut17hf36a464b6b84dcb1E;
	.scl	3;
	.type	32;
	.endef
	.section	.text,"xr",one_only,_ZN4core3ops8function5FnMut8call_mut17hf36a464b6b84dcb1E,unique,39
	.p2align	4
_ZN4core3ops8function5FnMut8call_mut17hf36a464b6b84dcb1E:
.seh_proc _ZN4core3ops8function5FnMut8call_mut17hf36a464b6b84dcb1E
	subq	$56, %rsp
	.seh_stackalloc 56
	.seh_endprologue
	movq	%rdx, 40(%rsp)
	movq	%r8, 48(%rsp)
	movq	40(%rsp), %rcx
	movq	48(%rsp), %rdx
	callq	_ZN4core3num23_$LT$impl$u20$usize$GT$11checked_add17h25cc268be3d8b070E
	nop
	.seh_startepilogue
	addq	$56, %rsp
	.seh_endepilogue
	retq
	.seh_endproc

	.def	_ZN4core3ops8function5impls79_$LT$impl$u20$core..ops..function..FnMut$LT$A$GT$$u20$for$u20$$RF$mut$u20$F$GT$8call_mut17h2fdbf17dac8d0dcaE;
	.scl	3;
	.type	32;
	.endef
	.section	.text,"xr",one_only,_ZN4core3ops8function5impls79_$LT$impl$u20$core..ops..function..FnMut$LT$A$GT$$u20$for$u20$$RF$mut$u20$F$GT$8call_mut17h2fdbf17dac8d0dcaE,unique,40
	.p2align	4
_ZN4core3ops8function5impls79_$LT$impl$u20$core..ops..function..FnMut$LT$A$GT$$u20$for$u20$$RF$mut$u20$F$GT$8call_mut17h2fdbf17dac8d0dcaE:
.seh_proc _ZN4core3ops8function5impls79_$LT$impl$u20$core..ops..function..FnMut$LT$A$GT$$u20$for$u20$$RF$mut$u20$F$GT$8call_mut17h2fdbf17dac8d0dcaE
	subq	$40, %rsp
	.seh_stackalloc 40
	.seh_endprologue
	movq	%rdx, 32(%rsp)
	movq	(%rcx), %rcx
	movq	32(%rsp), %rdx
	callq	_ZN98_$LT$core..str..IsNotEmpty$u20$as$u20$core..ops..function..FnMut$LT$$LP$$RF$$RF$str$C$$RP$$GT$$GT$8call_mut17h35ea9fc0b4b4e743E
	andb	$1, %al
	.seh_startepilogue
	addq	$40, %rsp
	.seh_endepilogue
	retq
	.seh_endproc

	.def	_ZN4core3ops8function6FnOnce40call_once$u7b$$u7b$vtable.shim$u7d$$u7d$17h39e129e14afc75b2E;
	.scl	3;
	.type	32;
	.endef
	.section	.text,"xr",one_only,_ZN4core3ops8function6FnOnce40call_once$u7b$$u7b$vtable.shim$u7d$$u7d$17h39e129e14afc75b2E,unique,41
	.p2align	4
_ZN4core3ops8function6FnOnce40call_once$u7b$$u7b$vtable.shim$u7d$$u7d$17h39e129e14afc75b2E:
.seh_proc _ZN4core3ops8function6FnOnce40call_once$u7b$$u7b$vtable.shim$u7d$$u7d$17h39e129e14afc75b2E
	subq	$40, %rsp
	.seh_stackalloc 40
	.seh_endprologue
	movq	(%rcx), %rcx
	callq	_ZN4core3ops8function6FnOnce9call_once17h9d09f8bdb1889809E
	nop
	.seh_startepilogue
	addq	$40, %rsp
	.seh_endepilogue
	retq
	.seh_endproc

	.def	_ZN4core3ops8function6FnOnce9call_once17h9d09f8bdb1889809E;
	.scl	3;
	.type	32;
	.endef
	.section	.text,"xr",one_only,_ZN4core3ops8function6FnOnce9call_once17h9d09f8bdb1889809E,unique,42
	.p2align	4
_ZN4core3ops8function6FnOnce9call_once17h9d09f8bdb1889809E:
.Lfunc_begin8:
.seh_proc _ZN4core3ops8function6FnOnce9call_once17h9d09f8bdb1889809E
	.seh_handler __CxxFrameHandler3, @unwind, @except
	pushq	%rbp
	.seh_pushreg %rbp
	subq	$64, %rsp
	.seh_stackalloc 64
	leaq	64(%rsp), %rbp
	.seh_setframe %rbp, 64
	.seh_endprologue
	movq	$-2, -8(%rbp)
	movq	%rcx, -16(%rbp)
.Ltmp154:
	leaq	-16(%rbp), %rcx
	callq	_ZN3std2rt10lang_start28_$u7b$$u7b$closure$u7d$$u7d$17hc2298b9bb5f17913E
.Ltmp155:
	movl	%eax, -20(%rbp)
	jmp	.LBB41_2
.LBB41_2:
	movl	-20(%rbp), %eax
	.seh_startepilogue
	addq	$64, %rsp
	popq	%rbp
	.seh_endepilogue
	retq
	.seh_handlerdata
	.long	$cppxdata$_ZN4core3ops8function6FnOnce9call_once17h9d09f8bdb1889809E@IMGREL
	.section	.text,"xr",one_only,_ZN4core3ops8function6FnOnce9call_once17h9d09f8bdb1889809E,unique,42
	.seh_endproc
	.def	"?dtor$1@?0?_ZN4core3ops8function6FnOnce9call_once17h9d09f8bdb1889809E@4HA";
	.scl	3;
	.type	32;
	.endef
	.p2align	4
"?dtor$1@?0?_ZN4core3ops8function6FnOnce9call_once17h9d09f8bdb1889809E@4HA":
.seh_proc "?dtor$1@?0?_ZN4core3ops8function6FnOnce9call_once17h9d09f8bdb1889809E@4HA"
.LBB41_1:
	movq	%rdx, 16(%rsp)
	pushq	%rbp
	.seh_pushreg %rbp
	subq	$32, %rsp
	.seh_stackalloc 32
	leaq	64(%rdx), %rbp
	.seh_endprologue
	.seh_startepilogue
	addq	$32, %rsp
	popq	%rbp
	.seh_endepilogue
	retq
.Lfunc_end8:
	.seh_handlerdata
	.section	.text,"xr",one_only,_ZN4core3ops8function6FnOnce9call_once17h9d09f8bdb1889809E,unique,42
	.seh_endproc
	.section	.xdata,"dr",associative,_ZN4core3ops8function6FnOnce9call_once17h9d09f8bdb1889809E,unique,8
	.p2align	2, 0x0
$cppxdata$_ZN4core3ops8function6FnOnce9call_once17h9d09f8bdb1889809E:
	.long	429065506
	.long	1
	.long	$stateUnwindMap$_ZN4core3ops8function6FnOnce9call_once17h9d09f8bdb1889809E@IMGREL
	.long	0
	.long	0
	.long	3
	.long	$ip2state$_ZN4core3ops8function6FnOnce9call_once17h9d09f8bdb1889809E@IMGREL
	.long	56
	.long	0
	.long	1
$stateUnwindMap$_ZN4core3ops8function6FnOnce9call_once17h9d09f8bdb1889809E:
	.long	-1
	.long	"?dtor$1@?0?_ZN4core3ops8function6FnOnce9call_once17h9d09f8bdb1889809E@4HA"@IMGREL
$ip2state$_ZN4core3ops8function6FnOnce9call_once17h9d09f8bdb1889809E:
	.long	.Lfunc_begin8@IMGREL
	.long	-1
	.long	.Ltmp154@IMGREL+1
	.long	0
	.long	.Ltmp155@IMGREL+1
	.long	-1
	.section	.text,"xr",one_only,_ZN4core3ops8function6FnOnce9call_once17h9d09f8bdb1889809E,unique,42

	.def	_ZN4core3ops8function6FnOnce9call_once17hcb7bcf7340d6c55cE;
	.scl	3;
	.type	32;
	.endef
	.section	.text,"xr",one_only,_ZN4core3ops8function6FnOnce9call_once17hcb7bcf7340d6c55cE,unique,43
	.p2align	4
_ZN4core3ops8function6FnOnce9call_once17hcb7bcf7340d6c55cE:
.seh_proc _ZN4core3ops8function6FnOnce9call_once17hcb7bcf7340d6c55cE
	subq	$56, %rsp
	.seh_stackalloc 56
	.seh_endprologue
	movq	%rcx, %rax
	movq	%rax, 32(%rsp)
	movq	%rdx, 40(%rsp)
	movq	%r8, 48(%rsp)
	movq	40(%rsp), %rdx
	movq	48(%rsp), %r8
	callq	_ZN5alloc3str56_$LT$impl$u20$alloc..borrow..ToOwned$u20$for$u20$str$GT$8to_owned17h29459ac53a099e3dE
	movq	32(%rsp), %rax
	.seh_startepilogue
	addq	$56, %rsp
	.seh_endepilogue
	retq
	.seh_endproc

	.def	_ZN4core3ops8function6FnOnce9call_once17hd89f3a139cd357a0E;
	.scl	3;
	.type	32;
	.endef
	.section	.text,"xr",one_only,_ZN4core3ops8function6FnOnce9call_once17hd89f3a139cd357a0E,unique,44
	.p2align	4
_ZN4core3ops8function6FnOnce9call_once17hd89f3a139cd357a0E:
.seh_proc _ZN4core3ops8function6FnOnce9call_once17hd89f3a139cd357a0E
	subq	$40, %rsp
	.seh_stackalloc 40
	.seh_endprologue
	callq	*%rcx
	nop
	.seh_startepilogue
	addq	$40, %rsp
	.seh_endepilogue
	retq
	.seh_endproc

	.def	_ZN4core3ptr101drop_in_place$LT$std..io..error..ErrorData$LT$alloc..boxed..Box$LT$std..io..error..Custom$GT$$GT$$GT$17h47370f5269d5d9cbE;
	.scl	3;
	.type	32;
	.endef
	.section	.text,"xr",one_only,_ZN4core3ptr101drop_in_place$LT$std..io..error..ErrorData$LT$alloc..boxed..Box$LT$std..io..error..Custom$GT$$GT$$GT$17h47370f5269d5d9cbE,unique,45
	.p2align	4
_ZN4core3ptr101drop_in_place$LT$std..io..error..ErrorData$LT$alloc..boxed..Box$LT$std..io..error..Custom$GT$$GT$$GT$17h47370f5269d5d9cbE:
.seh_proc _ZN4core3ptr101drop_in_place$LT$std..io..error..ErrorData$LT$alloc..boxed..Box$LT$std..io..error..Custom$GT$$GT$$GT$17h47370f5269d5d9cbE
	subq	$40, %rsp
	.seh_stackalloc 40
	.seh_endprologue
	movq	%rcx, 32(%rsp)
	movb	(%rcx), %al
	subb	$3, %al
	jb	.LBB44_2
	jmp	.LBB44_1
.LBB44_1:
	movq	32(%rsp), %rcx
	addq	$8, %rcx
	callq	_ZN4core3ptr68drop_in_place$LT$alloc..boxed..Box$LT$std..io..error..Custom$GT$$GT$17h22c40497a49c985eE
.LBB44_2:
	nop
	.seh_startepilogue
	addq	$40, %rsp
	.seh_endepilogue
	retq
	.seh_endproc

	.def	_ZN4core3ptr118drop_in_place$LT$alloc..boxed..Box$LT$dyn$u20$core..error..Error$u2b$core..marker..Sync$u2b$core..marker..Send$GT$$GT$17h625d8ef55f0618c7E;
	.scl	3;
	.type	32;
	.endef
	.section	.text,"xr",one_only,_ZN4core3ptr118drop_in_place$LT$alloc..boxed..Box$LT$dyn$u20$core..error..Error$u2b$core..marker..Sync$u2b$core..marker..Send$GT$$GT$17h625d8ef55f0618c7E,unique,46
	.p2align	4
_ZN4core3ptr118drop_in_place$LT$alloc..boxed..Box$LT$dyn$u20$core..error..Error$u2b$core..marker..Sync$u2b$core..marker..Send$GT$$GT$17h625d8ef55f0618c7E:
.Lfunc_begin9:
.seh_proc _ZN4core3ptr118drop_in_place$LT$alloc..boxed..Box$LT$dyn$u20$core..error..Error$u2b$core..marker..Sync$u2b$core..marker..Send$GT$$GT$17h625d8ef55f0618c7E
	.seh_handler __CxxFrameHandler3, @unwind, @except
	pushq	%rbp
	.seh_pushreg %rbp
	subq	$64, %rsp
	.seh_stackalloc 64
	leaq	64(%rsp), %rbp
	.seh_setframe %rbp, 64
	.seh_endprologue
	movq	$-2, -8(%rbp)
	movq	%rcx, -32(%rbp)
	movq	(%rcx), %rax
	movq	%rax, -24(%rbp)
	movq	8(%rcx), %rax
	movq	(%rax), %rax
	movq	%rax, -16(%rbp)
	cmpq	$0, %rax
	je	.LBB45_2
.Ltmp156:
	movq	-16(%rbp), %rax
	movq	-24(%rbp), %rcx
	callq	*%rax
.Ltmp157:
	jmp	.LBB45_2
.LBB45_2:
	movq	-32(%rbp), %rcx
	callq	_ZN72_$LT$alloc..boxed..Box$LT$T$C$A$GT$$u20$as$u20$core..ops..drop..Drop$GT$4drop17hcc2d8a02998e04dbE
	nop
	.seh_startepilogue
	addq	$64, %rsp
	popq	%rbp
	.seh_endepilogue
	retq
	.seh_handlerdata
	.long	$cppxdata$_ZN4core3ptr118drop_in_place$LT$alloc..boxed..Box$LT$dyn$u20$core..error..Error$u2b$core..marker..Sync$u2b$core..marker..Send$GT$$GT$17h625d8ef55f0618c7E@IMGREL
	.section	.text,"xr",one_only,_ZN4core3ptr118drop_in_place$LT$alloc..boxed..Box$LT$dyn$u20$core..error..Error$u2b$core..marker..Sync$u2b$core..marker..Send$GT$$GT$17h625d8ef55f0618c7E,unique,46
	.seh_endproc
	.def	"?dtor$3@?0?_ZN4core3ptr118drop_in_place$LT$alloc..boxed..Box$LT$dyn$u20$core..error..Error$u2b$core..marker..Sync$u2b$core..marker..Send$GT$$GT$17h625d8ef55f0618c7E@4HA";
	.scl	3;
	.type	32;
	.endef
	.p2align	4
"?dtor$3@?0?_ZN4core3ptr118drop_in_place$LT$alloc..boxed..Box$LT$dyn$u20$core..error..Error$u2b$core..marker..Sync$u2b$core..marker..Send$GT$$GT$17h625d8ef55f0618c7E@4HA":
.seh_proc "?dtor$3@?0?_ZN4core3ptr118drop_in_place$LT$alloc..boxed..Box$LT$dyn$u20$core..error..Error$u2b$core..marker..Sync$u2b$core..marker..Send$GT$$GT$17h625d8ef55f0618c7E@4HA"
.LBB45_3:
	movq	%rdx, 16(%rsp)
	pushq	%rbp
	.seh_pushreg %rbp
	subq	$32, %rsp
	.seh_stackalloc 32
	leaq	64(%rdx), %rbp
	.seh_endprologue
	movq	-32(%rbp), %rcx
	callq	_ZN72_$LT$alloc..boxed..Box$LT$T$C$A$GT$$u20$as$u20$core..ops..drop..Drop$GT$4drop17hcc2d8a02998e04dbE
	nop
	.seh_startepilogue
	addq	$32, %rsp
	popq	%rbp
	.seh_endepilogue
	retq
.Lfunc_end9:
	.seh_handlerdata
	.section	.text,"xr",one_only,_ZN4core3ptr118drop_in_place$LT$alloc..boxed..Box$LT$dyn$u20$core..error..Error$u2b$core..marker..Sync$u2b$core..marker..Send$GT$$GT$17h625d8ef55f0618c7E,unique,46
	.seh_endproc
	.section	.xdata,"dr",associative,_ZN4core3ptr118drop_in_place$LT$alloc..boxed..Box$LT$dyn$u20$core..error..Error$u2b$core..marker..Sync$u2b$core..marker..Send$GT$$GT$17h625d8ef55f0618c7E,unique,9
	.p2align	2, 0x0
$cppxdata$_ZN4core3ptr118drop_in_place$LT$alloc..boxed..Box$LT$dyn$u20$core..error..Error$u2b$core..marker..Sync$u2b$core..marker..Send$GT$$GT$17h625d8ef55f0618c7E:
	.long	429065506
	.long	1
	.long	$stateUnwindMap$_ZN4core3ptr118drop_in_place$LT$alloc..boxed..Box$LT$dyn$u20$core..error..Error$u2b$core..marker..Sync$u2b$core..marker..Send$GT$$GT$17h625d8ef55f0618c7E@IMGREL
	.long	0
	.long	0
	.long	3
	.long	$ip2state$_ZN4core3ptr118drop_in_place$LT$alloc..boxed..Box$LT$dyn$u20$core..error..Error$u2b$core..marker..Sync$u2b$core..marker..Send$GT$$GT$17h625d8ef55f0618c7E@IMGREL
	.long	56
	.long	0
	.long	1
$stateUnwindMap$_ZN4core3ptr118drop_in_place$LT$alloc..boxed..Box$LT$dyn$u20$core..error..Error$u2b$core..marker..Sync$u2b$core..marker..Send$GT$$GT$17h625d8ef55f0618c7E:
	.long	-1
	.long	"?dtor$3@?0?_ZN4core3ptr118drop_in_place$LT$alloc..boxed..Box$LT$dyn$u20$core..error..Error$u2b$core..marker..Sync$u2b$core..marker..Send$GT$$GT$17h625d8ef55f0618c7E@4HA"@IMGREL
$ip2state$_ZN4core3ptr118drop_in_place$LT$alloc..boxed..Box$LT$dyn$u20$core..error..Error$u2b$core..marker..Sync$u2b$core..marker..Send$GT$$GT$17h625d8ef55f0618c7E:
	.long	.Lfunc_begin9@IMGREL
	.long	-1
	.long	.Ltmp156@IMGREL+1
	.long	0
	.long	.Ltmp157@IMGREL+1
	.long	-1
	.section	.text,"xr",one_only,_ZN4core3ptr118drop_in_place$LT$alloc..boxed..Box$LT$dyn$u20$core..error..Error$u2b$core..marker..Sync$u2b$core..marker..Send$GT$$GT$17h625d8ef55f0618c7E,unique,46

	.def	_ZN4core3ptr11write_bytes18precondition_check17hfa3ff09bb4f40f7cE;
	.scl	3;
	.type	32;
	.endef
	.section	.text,"xr",one_only,_ZN4core3ptr11write_bytes18precondition_check17hfa3ff09bb4f40f7cE,unique,47
	.p2align	4
_ZN4core3ptr11write_bytes18precondition_check17hfa3ff09bb4f40f7cE:
.Lfunc_begin10:
.seh_proc _ZN4core3ptr11write_bytes18precondition_check17hfa3ff09bb4f40f7cE
	.seh_handler __CxxFrameHandler3, @unwind, @except
	pushq	%rbp
	.seh_pushreg %rbp
	subq	$192, %rsp
	.seh_stackalloc 192
	leaq	128(%rsp), %rbp
	.seh_setframe %rbp, 128
	.seh_endprologue
	movq	$-2, 56(%rbp)
	movq	%r9, -96(%rbp)
	movq	%rdx, -88(%rbp)
	movq	%rcx, %rax
	movq	-88(%rbp), %rcx
	movq	%rax, -80(%rbp)
	movb	%r8b, -65(%rbp)
	movq	%rcx, %rax
	shrq	%rax
	movabsq	$6148914691236517205, %rdx
	andq	%rdx, %rax
	subq	%rax, %rcx
	movabsq	$3689348814741910323, %rdx
	movq	%rcx, %rax
	andq	%rdx, %rax
	shrq	$2, %rcx
	andq	%rdx, %rcx
	addq	%rcx, %rax
	movq	%rax, %rcx
	shrq	$4, %rcx
	addq	%rcx, %rax
	movabsq	$1085102592571150095, %rcx
	andq	%rcx, %rax
	movabsq	$72340172838076673, %rcx
	imulq	%rcx, %rax
	shrq	$56, %rax
	movl	%eax, 52(%rbp)
	cmpl	$1, 52(%rbp)
	jne	.LBB46_2
	movq	-80(%rbp), %rax
	movq	-88(%rbp), %rcx
	subq	$1, %rcx
	andq	%rcx, %rax
	cmpq	$0, %rax
	je	.LBB46_3
	jmp	.LBB46_4
.LBB46_2:
	leaq	anon.aea64e3d4c527d9b67f1a42df9b9b7d7.55(%rip), %rax
	movq	%rax, (%rbp)
	movq	$1, 8(%rbp)
	movq	$0, 32(%rbp)
	movq	$8, 16(%rbp)
	movq	$0, 24(%rbp)
.Ltmp158:
	leaq	anon.aea64e3d4c527d9b67f1a42df9b9b7d7.57(%rip), %rdx
	movq	%rbp, %rcx
	callq	_ZN4core9panicking9panic_fmt17hdecc33e36b6de7c8E
.Ltmp159:
	jmp	.LBB46_10
.LBB46_3:
	movb	-65(%rbp), %al
	testb	$1, %al
	jne	.LBB46_6
	jmp	.LBB46_5
.LBB46_4:
	jmp	.LBB46_7
.LBB46_5:
	movq	-80(%rbp), %rax
	cmpq	$0, %rax
	sete	%al
	xorb	$-1, %al
	testb	$1, %al
	jne	.LBB46_8
	jmp	.LBB46_7
.LBB46_6:
	jmp	.LBB46_8
.LBB46_7:
	movq	-96(%rbp), %r8
	leaq	anon.aea64e3d4c527d9b67f1a42df9b9b7d7.53(%rip), %rax
	movq	%rax, -16(%rbp)
	movq	$228, -8(%rbp)
	leaq	-16(%rbp), %rax
	movq	%rax, -64(%rbp)
	movq	$1, -56(%rbp)
	movq	$0, -32(%rbp)
	movq	%rax, -24(%rbp)
	movl	$8, %eax
	movq	%rax, -48(%rbp)
	movq	$0, -40(%rbp)
	leaq	-64(%rbp), %rcx
	xorl	%edx, %edx
	callq	_ZN4core9panicking18panic_nounwind_fmt17h93b15706b0f16961E
.LBB46_8:
	nop
	.seh_startepilogue
	addq	$192, %rsp
	popq	%rbp
	.seh_endepilogue
	retq
.LBB46_10:
	ud2
	.seh_handlerdata
	.long	$cppxdata$_ZN4core3ptr11write_bytes18precondition_check17hfa3ff09bb4f40f7cE@IMGREL
	.section	.text,"xr",one_only,_ZN4core3ptr11write_bytes18precondition_check17hfa3ff09bb4f40f7cE,unique,47
	.seh_endproc
	.def	"?catch$9@?0?_ZN4core3ptr11write_bytes18precondition_check17hfa3ff09bb4f40f7cE@4HA";
	.scl	3;
	.type	32;
	.endef
	.p2align	4
"?catch$9@?0?_ZN4core3ptr11write_bytes18precondition_check17hfa3ff09bb4f40f7cE@4HA":
.seh_proc "?catch$9@?0?_ZN4core3ptr11write_bytes18precondition_check17hfa3ff09bb4f40f7cE@4HA"
	.seh_handler __CxxFrameHandler3, @unwind, @except
.LBB46_9:
	movq	%rdx, 16(%rsp)
	pushq	%rbp
	.seh_pushreg %rbp
	subq	$32, %rsp
	.seh_stackalloc 32
	leaq	128(%rdx), %rbp
	.seh_endprologue
	callq	_ZN4core9panicking19panic_cannot_unwind17h4a26a134c4adcb2bE
	int3
.Lfunc_end10:
	.seh_handlerdata
	.long	$cppxdata$_ZN4core3ptr11write_bytes18precondition_check17hfa3ff09bb4f40f7cE@IMGREL
	.section	.text,"xr",one_only,_ZN4core3ptr11write_bytes18precondition_check17hfa3ff09bb4f40f7cE,unique,47
	.seh_endproc
	.section	.xdata,"dr",associative,_ZN4core3ptr11write_bytes18precondition_check17hfa3ff09bb4f40f7cE,unique,10
	.p2align	2, 0x0
$cppxdata$_ZN4core3ptr11write_bytes18precondition_check17hfa3ff09bb4f40f7cE:
	.long	429065506
	.long	2
	.long	$stateUnwindMap$_ZN4core3ptr11write_bytes18precondition_check17hfa3ff09bb4f40f7cE@IMGREL
	.long	1
	.long	$tryMap$_ZN4core3ptr11write_bytes18precondition_check17hfa3ff09bb4f40f7cE@IMGREL
	.long	4
	.long	$ip2state$_ZN4core3ptr11write_bytes18precondition_check17hfa3ff09bb4f40f7cE@IMGREL
	.long	184
	.long	0
	.long	1
$stateUnwindMap$_ZN4core3ptr11write_bytes18precondition_check17hfa3ff09bb4f40f7cE:
	.long	-1
	.long	0
	.long	-1
	.long	0
$tryMap$_ZN4core3ptr11write_bytes18precondition_check17hfa3ff09bb4f40f7cE:
	.long	0
	.long	0
	.long	1
	.long	1
	.long	$handlerMap$0$_ZN4core3ptr11write_bytes18precondition_check17hfa3ff09bb4f40f7cE@IMGREL
$handlerMap$0$_ZN4core3ptr11write_bytes18precondition_check17hfa3ff09bb4f40f7cE:
	.long	64
	.long	0
	.long	0
	.long	"?catch$9@?0?_ZN4core3ptr11write_bytes18precondition_check17hfa3ff09bb4f40f7cE@4HA"@IMGREL
	.long	56
$ip2state$_ZN4core3ptr11write_bytes18precondition_check17hfa3ff09bb4f40f7cE:
	.long	.Lfunc_begin10@IMGREL
	.long	-1
	.long	.Ltmp158@IMGREL+1
	.long	0
	.long	.Ltmp159@IMGREL+1
	.long	-1
	.long	"?catch$9@?0?_ZN4core3ptr11write_bytes18precondition_check17hfa3ff09bb4f40f7cE@4HA"@IMGREL
	.long	1
	.section	.text,"xr",one_only,_ZN4core3ptr11write_bytes18precondition_check17hfa3ff09bb4f40f7cE,unique,47

	.def	_ZN4core3ptr161drop_in_place$LT$$LT$alloc..vec..into_iter..IntoIter$LT$T$C$A$GT$$u20$as$u20$core..ops..drop..Drop$GT$..drop..DropGuard$LT$$RF$str$C$alloc..alloc..Global$GT$$GT$17h39c96502d4e8e941E;
	.scl	3;
	.type	32;
	.endef
	.section	.text,"xr",one_only,_ZN4core3ptr161drop_in_place$LT$$LT$alloc..vec..into_iter..IntoIter$LT$T$C$A$GT$$u20$as$u20$core..ops..drop..Drop$GT$..drop..DropGuard$LT$$RF$str$C$alloc..alloc..Global$GT$$GT$17h39c96502d4e8e941E,unique,48
	.p2align	4
_ZN4core3ptr161drop_in_place$LT$$LT$alloc..vec..into_iter..IntoIter$LT$T$C$A$GT$$u20$as$u20$core..ops..drop..Drop$GT$..drop..DropGuard$LT$$RF$str$C$alloc..alloc..Global$GT$$GT$17h39c96502d4e8e941E:
.seh_proc _ZN4core3ptr161drop_in_place$LT$$LT$alloc..vec..into_iter..IntoIter$LT$T$C$A$GT$$u20$as$u20$core..ops..drop..Drop$GT$..drop..DropGuard$LT$$RF$str$C$alloc..alloc..Global$GT$$GT$17h39c96502d4e8e941E
	subq	$40, %rsp
	.seh_stackalloc 40
	.seh_endprologue
	callq	_ZN157_$LT$$LT$alloc..vec..into_iter..IntoIter$LT$T$C$A$GT$$u20$as$u20$core..ops..drop..Drop$GT$..drop..DropGuard$LT$T$C$A$GT$$u20$as$u20$core..ops..drop..Drop$GT$4drop17habe61256fa17d96fE
	nop
	.seh_startepilogue
	addq	$40, %rsp
	.seh_endepilogue
	retq
	.seh_endproc

	.def	_ZN4core3ptr180drop_in_place$LT$$LT$alloc..vec..into_iter..IntoIter$LT$T$C$A$GT$$u20$as$u20$core..ops..drop..Drop$GT$..drop..DropGuard$LT$std..ffi..os_str..OsString$C$alloc..alloc..Global$GT$$GT$17ha34c17654f99066bE;
	.scl	3;
	.type	32;
	.endef
	.section	.text,"xr",one_only,_ZN4core3ptr180drop_in_place$LT$$LT$alloc..vec..into_iter..IntoIter$LT$T$C$A$GT$$u20$as$u20$core..ops..drop..Drop$GT$..drop..DropGuard$LT$std..ffi..os_str..OsString$C$alloc..alloc..Global$GT$$GT$17ha34c17654f99066bE,unique,49
	.p2align	4
_ZN4core3ptr180drop_in_place$LT$$LT$alloc..vec..into_iter..IntoIter$LT$T$C$A$GT$$u20$as$u20$core..ops..drop..Drop$GT$..drop..DropGuard$LT$std..ffi..os_str..OsString$C$alloc..alloc..Global$GT$$GT$17ha34c17654f99066bE:
.seh_proc _ZN4core3ptr180drop_in_place$LT$$LT$alloc..vec..into_iter..IntoIter$LT$T$C$A$GT$$u20$as$u20$core..ops..drop..Drop$GT$..drop..DropGuard$LT$std..ffi..os_str..OsString$C$alloc..alloc..Global$GT$$GT$17ha34c17654f99066bE
	subq	$40, %rsp
	.seh_stackalloc 40
	.seh_endprologue
	callq	_ZN157_$LT$$LT$alloc..vec..into_iter..IntoIter$LT$T$C$A$GT$$u20$as$u20$core..ops..drop..Drop$GT$..drop..DropGuard$LT$T$C$A$GT$$u20$as$u20$core..ops..drop..Drop$GT$4drop17haeea43adfb59574fE
	nop
	.seh_startepilogue
	addq	$40, %rsp
	.seh_endepilogue
	retq
	.seh_endproc

	.def	_ZN4core3ptr19copy_nonoverlapping18precondition_check17he4b829896f2aefabE;
	.scl	3;
	.type	32;
	.endef
	.section	.text,"xr",one_only,_ZN4core3ptr19copy_nonoverlapping18precondition_check17he4b829896f2aefabE,unique,50
	.p2align	4
_ZN4core3ptr19copy_nonoverlapping18precondition_check17he4b829896f2aefabE:
.Lfunc_begin11:
.seh_proc _ZN4core3ptr19copy_nonoverlapping18precondition_check17he4b829896f2aefabE
	.seh_handler __CxxFrameHandler3, @unwind, @except
	pushq	%rbp
	.seh_pushreg %rbp
	subq	$320, %rsp
	.seh_stackalloc 320
	leaq	128(%rsp), %rbp
	.seh_setframe %rbp, 128
	.seh_endprologue
	movq	$-2, 184(%rbp)
	movq	%r9, -88(%rbp)
	movq	%r8, -80(%rbp)
	movq	%rdx, -72(%rbp)
	movq	%rcx, -64(%rbp)
	movq	248(%rbp), %rax
	movq	%rax, -56(%rbp)
	movq	240(%rbp), %rax
	movq	%rax, -48(%rbp)
	cmpq	$0, %rax
	jne	.LBB49_2
	movq	-88(%rbp), %rcx
	movb	$1, -33(%rbp)
	movq	%rcx, -32(%rbp)
	movb	-33(%rbp), %al
	andb	$1, %al
	movb	%al, -17(%rbp)
	movq	%rcx, %rax
	shrq	%rax
	movabsq	$6148914691236517205, %rdx
	andq	%rdx, %rax
	subq	%rax, %rcx
	movabsq	$3689348814741910323, %rdx
	movq	%rcx, %rax
	andq	%rdx, %rax
	shrq	$2, %rcx
	andq	%rdx, %rcx
	addq	%rcx, %rax
	movq	%rax, %rcx
	shrq	$4, %rcx
	addq	%rcx, %rax
	movabsq	$1085102592571150095, %rcx
	andq	%rcx, %rax
	movabsq	$72340172838076673, %rcx
	imulq	%rcx, %rax
	shrq	$56, %rax
	movl	%eax, 124(%rbp)
	cmpl	$1, 124(%rbp)
	je	.LBB49_3
	jmp	.LBB49_4
.LBB49_2:
	movq	-88(%rbp), %rcx
	movq	-80(%rbp), %rax
	cmpq	$0, %rax
	sete	%al
	andb	$1, %al
	movb	%al, -33(%rbp)
	movq	%rcx, -32(%rbp)
	movb	-33(%rbp), %al
	andb	$1, %al
	movb	%al, -17(%rbp)
	movq	%rcx, %rax
	shrq	%rax
	movabsq	$6148914691236517205, %rdx
	andq	%rdx, %rax
	subq	%rax, %rcx
	movabsq	$3689348814741910323, %rdx
	movq	%rcx, %rax
	andq	%rdx, %rax
	shrq	$2, %rcx
	andq	%rdx, %rcx
	addq	%rcx, %rax
	movq	%rax, %rcx
	shrq	$4, %rcx
	addq	%rcx, %rax
	movabsq	$1085102592571150095, %rcx
	andq	%rcx, %rax
	movabsq	$72340172838076673, %rcx
	imulq	%rcx, %rax
	shrq	$56, %rax
	movl	%eax, 124(%rbp)
	cmpl	$1, 124(%rbp)
	je	.LBB49_8
	jmp	.LBB49_4
.LBB49_3:
	movq	-88(%rbp), %rax
	movq	-64(%rbp), %rcx
	movq	%rcx, 104(%rbp)
	subq	$1, %rax
	movq	%rax, 112(%rbp)
	movq	104(%rbp), %rax
	andq	112(%rbp), %rax
	movq	%rax, 96(%rbp)
	cmpq	$0, 96(%rbp)
	je	.LBB49_5
	jmp	.LBB49_6
.LBB49_4:
	leaq	anon.aea64e3d4c527d9b67f1a42df9b9b7d7.55(%rip), %rax
	movq	%rax, 48(%rbp)
	movq	$1, 56(%rbp)
	movq	$0, 80(%rbp)
	movq	$8, 64(%rbp)
	movq	$0, 72(%rbp)
.Ltmp160:
	leaq	anon.aea64e3d4c527d9b67f1a42df9b9b7d7.57(%rip), %rdx
	leaq	48(%rbp), %rcx
	callq	_ZN4core9panicking9panic_fmt17hdecc33e36b6de7c8E
.Ltmp161:
	jmp	.LBB49_26
.LBB49_5:
	jmp	.LBB49_7
.LBB49_6:
	jmp	.LBB49_11
.LBB49_7:
	jmp	.LBB49_12
.LBB49_8:
	movq	-88(%rbp), %rax
	movq	-64(%rbp), %rcx
	movq	%rcx, 104(%rbp)
	subq	$1, %rax
	movq	%rax, 112(%rbp)
	movq	104(%rbp), %rax
	andq	112(%rbp), %rax
	movq	%rax, 96(%rbp)
	cmpq	$0, 96(%rbp)
	jne	.LBB49_6
	testb	$1, -17(%rbp)
	jne	.LBB49_7
	cmpq	$0, 104(%rbp)
	sete	%al
	xorb	$-1, %al
	testb	$1, %al
	jne	.LBB49_12
.LBB49_11:
	jmp	.LBB49_25
.LBB49_12:
	movq	-88(%rbp), %rcx
	movq	%rcx, %rax
	shrq	%rax
	movabsq	$6148914691236517205, %rdx
	andq	%rdx, %rax
	subq	%rax, %rcx
	movabsq	$3689348814741910323, %rdx
	movq	%rcx, %rax
	andq	%rdx, %rax
	shrq	$2, %rcx
	andq	%rdx, %rcx
	addq	%rcx, %rax
	movq	%rax, %rcx
	shrq	$4, %rcx
	addq	%rcx, %rax
	movabsq	$1085102592571150095, %rcx
	andq	%rcx, %rax
	movabsq	$72340172838076673, %rcx
	imulq	%rcx, %rax
	shrq	$56, %rax
	movl	%eax, 180(%rbp)
	cmpl	$1, 180(%rbp)
	jne	.LBB49_14
	movq	-72(%rbp), %rax
	andq	112(%rbp), %rax
	cmpq	$0, %rax
	je	.LBB49_15
	jmp	.LBB49_16
.LBB49_14:
	leaq	anon.aea64e3d4c527d9b67f1a42df9b9b7d7.55(%rip), %rax
	movq	%rax, 128(%rbp)
	movq	$1, 136(%rbp)
	movq	$0, 160(%rbp)
	movq	$8, 144(%rbp)
	movq	$0, 152(%rbp)
.Ltmp162:
	leaq	anon.aea64e3d4c527d9b67f1a42df9b9b7d7.57(%rip), %rdx
	leaq	128(%rbp), %rcx
	callq	_ZN4core9panicking9panic_fmt17hdecc33e36b6de7c8E
.Ltmp163:
	jmp	.LBB49_26
.LBB49_15:
	testb	$1, -33(%rbp)
	jne	.LBB49_18
	jmp	.LBB49_17
.LBB49_16:
	jmp	.LBB49_19
.LBB49_17:
	movq	-72(%rbp), %rax
	cmpq	$0, %rax
	sete	%al
	xorb	$-1, %al
	testb	$1, %al
	jne	.LBB49_20
	jmp	.LBB49_19
.LBB49_18:
	jmp	.LBB49_20
.LBB49_19:
	jmp	.LBB49_25
.LBB49_20:
.Ltmp164:
	movq	-48(%rbp), %r9
	movq	-80(%rbp), %r8
	movq	-72(%rbp), %rdx
	movq	-64(%rbp), %rcx
	callq	_ZN4core9ub_checks23maybe_is_nonoverlapping7runtime17h43edc529d2741204E
.Ltmp165:
	movb	%al, -89(%rbp)
	jmp	.LBB49_22
.LBB49_22:
	movb	-89(%rbp), %al
	testb	$1, %al
	jne	.LBB49_24
	jmp	.LBB49_23
.LBB49_23:
	movq	-56(%rbp), %r8
	leaq	anon.aea64e3d4c527d9b67f1a42df9b9b7d7.58(%rip), %rax
	movq	%rax, 32(%rbp)
	movq	$283, 40(%rbp)
	leaq	32(%rbp), %rax
	movq	%rax, -16(%rbp)
	movq	$1, -8(%rbp)
	movq	$0, 16(%rbp)
	movq	%rax, 24(%rbp)
	movl	$8, %eax
	movq	%rax, (%rbp)
	movq	$0, 8(%rbp)
	leaq	-16(%rbp), %rcx
	xorl	%edx, %edx
	callq	_ZN4core9panicking18panic_nounwind_fmt17h93b15706b0f16961E
.LBB49_24:
	nop
	.seh_startepilogue
	addq	$320, %rsp
	popq	%rbp
	.seh_endepilogue
	retq
.LBB49_25:
	jmp	.LBB49_23
.LBB49_26:
	ud2
	.seh_handlerdata
	.long	$cppxdata$_ZN4core3ptr19copy_nonoverlapping18precondition_check17he4b829896f2aefabE@IMGREL
	.section	.text,"xr",one_only,_ZN4core3ptr19copy_nonoverlapping18precondition_check17he4b829896f2aefabE,unique,50
	.seh_endproc
	.def	"?catch$21@?0?_ZN4core3ptr19copy_nonoverlapping18precondition_check17he4b829896f2aefabE@4HA";
	.scl	3;
	.type	32;
	.endef
	.p2align	4
"?catch$21@?0?_ZN4core3ptr19copy_nonoverlapping18precondition_check17he4b829896f2aefabE@4HA":
.seh_proc "?catch$21@?0?_ZN4core3ptr19copy_nonoverlapping18precondition_check17he4b829896f2aefabE@4HA"
	.seh_handler __CxxFrameHandler3, @unwind, @except
.LBB49_21:
	movq	%rdx, 16(%rsp)
	pushq	%rbp
	.seh_pushreg %rbp
	subq	$32, %rsp
	.seh_stackalloc 32
	leaq	128(%rdx), %rbp
	.seh_endprologue
	callq	_ZN4core9panicking19panic_cannot_unwind17h4a26a134c4adcb2bE
	int3
.Lfunc_end11:
	.seh_handlerdata
	.long	$cppxdata$_ZN4core3ptr19copy_nonoverlapping18precondition_check17he4b829896f2aefabE@IMGREL
	.section	.text,"xr",one_only,_ZN4core3ptr19copy_nonoverlapping18precondition_check17he4b829896f2aefabE,unique,50
	.seh_endproc
	.section	.xdata,"dr",associative,_ZN4core3ptr19copy_nonoverlapping18precondition_check17he4b829896f2aefabE,unique,11
	.p2align	2, 0x0
$cppxdata$_ZN4core3ptr19copy_nonoverlapping18precondition_check17he4b829896f2aefabE:
	.long	429065506
	.long	2
	.long	$stateUnwindMap$_ZN4core3ptr19copy_nonoverlapping18precondition_check17he4b829896f2aefabE@IMGREL
	.long	1
	.long	$tryMap$_ZN4core3ptr19copy_nonoverlapping18precondition_check17he4b829896f2aefabE@IMGREL
	.long	4
	.long	$ip2state$_ZN4core3ptr19copy_nonoverlapping18precondition_check17he4b829896f2aefabE@IMGREL
	.long	312
	.long	0
	.long	1
$stateUnwindMap$_ZN4core3ptr19copy_nonoverlapping18precondition_check17he4b829896f2aefabE:
	.long	-1
	.long	0
	.long	-1
	.long	0
$tryMap$_ZN4core3ptr19copy_nonoverlapping18precondition_check17he4b829896f2aefabE:
	.long	0
	.long	0
	.long	1
	.long	1
	.long	$handlerMap$0$_ZN4core3ptr19copy_nonoverlapping18precondition_check17he4b829896f2aefabE@IMGREL
$handlerMap$0$_ZN4core3ptr19copy_nonoverlapping18precondition_check17he4b829896f2aefabE:
	.long	64
	.long	0
	.long	0
	.long	"?catch$21@?0?_ZN4core3ptr19copy_nonoverlapping18precondition_check17he4b829896f2aefabE@4HA"@IMGREL
	.long	56
$ip2state$_ZN4core3ptr19copy_nonoverlapping18precondition_check17he4b829896f2aefabE:
	.long	.Lfunc_begin11@IMGREL
	.long	-1
	.long	.Ltmp160@IMGREL+1
	.long	0
	.long	.Ltmp165@IMGREL+1
	.long	-1
	.long	"?catch$21@?0?_ZN4core3ptr19copy_nonoverlapping18precondition_check17he4b829896f2aefabE@4HA"@IMGREL
	.long	1
	.section	.text,"xr",one_only,_ZN4core3ptr19copy_nonoverlapping18precondition_check17he4b829896f2aefabE,unique,50

	.def	_ZN4core3ptr35drop_in_place$LT$std..env..Args$GT$17h67289dc37abc5d95E;
	.scl	3;
	.type	32;
	.endef
	.section	.text,"xr",one_only,_ZN4core3ptr35drop_in_place$LT$std..env..Args$GT$17h67289dc37abc5d95E,unique,51
	.p2align	4
_ZN4core3ptr35drop_in_place$LT$std..env..Args$GT$17h67289dc37abc5d95E:
.seh_proc _ZN4core3ptr35drop_in_place$LT$std..env..Args$GT$17h67289dc37abc5d95E
	subq	$40, %rsp
	.seh_stackalloc 40
	.seh_endprologue
	callq	_ZN4core3ptr37drop_in_place$LT$std..env..ArgsOs$GT$17h41d793cff3745878E
	nop
	.seh_startepilogue
	addq	$40, %rsp
	.seh_endepilogue
	retq
	.seh_endproc

	.def	_ZN4core3ptr37drop_in_place$LT$std..env..ArgsOs$GT$17h41d793cff3745878E;
	.scl	3;
	.type	32;
	.endef
	.section	.text,"xr",one_only,_ZN4core3ptr37drop_in_place$LT$std..env..ArgsOs$GT$17h41d793cff3745878E,unique,52
	.p2align	4
_ZN4core3ptr37drop_in_place$LT$std..env..ArgsOs$GT$17h41d793cff3745878E:
.seh_proc _ZN4core3ptr37drop_in_place$LT$std..env..ArgsOs$GT$17h41d793cff3745878E
	subq	$40, %rsp
	.seh_stackalloc 40
	.seh_endprologue
	callq	_ZN4core3ptr49drop_in_place$LT$std..sys..args..common..Args$GT$17h93940c55f89931d1E
	nop
	.seh_startepilogue
	addq	$40, %rsp
	.seh_endepilogue
	retq
	.seh_endproc

	.def	_ZN4core3ptr41drop_in_place$LT$alloc..wtf8..Wtf8Buf$GT$17hf44f168ae1e9053dE;
	.scl	3;
	.type	32;
	.endef
	.section	.text,"xr",one_only,_ZN4core3ptr41drop_in_place$LT$alloc..wtf8..Wtf8Buf$GT$17hf44f168ae1e9053dE,unique,53
	.p2align	4
_ZN4core3ptr41drop_in_place$LT$alloc..wtf8..Wtf8Buf$GT$17hf44f168ae1e9053dE:
.seh_proc _ZN4core3ptr41drop_in_place$LT$alloc..wtf8..Wtf8Buf$GT$17hf44f168ae1e9053dE
	subq	$40, %rsp
	.seh_stackalloc 40
	.seh_endprologue
	callq	_ZN4core3ptr46drop_in_place$LT$alloc..vec..Vec$LT$u8$GT$$GT$17he036075ba8e8bfddE
	nop
	.seh_startepilogue
	addq	$40, %rsp
	.seh_endepilogue
	retq
	.seh_endproc

	.def	_ZN4core3ptr42drop_in_place$LT$alloc..string..String$GT$17hefd3488d5dba1b13E;
	.scl	3;
	.type	32;
	.endef
	.section	.text,"xr",one_only,_ZN4core3ptr42drop_in_place$LT$alloc..string..String$GT$17hefd3488d5dba1b13E,unique,54
	.p2align	4
_ZN4core3ptr42drop_in_place$LT$alloc..string..String$GT$17hefd3488d5dba1b13E:
.seh_proc _ZN4core3ptr42drop_in_place$LT$alloc..string..String$GT$17hefd3488d5dba1b13E
	subq	$40, %rsp
	.seh_stackalloc 40
	.seh_endprologue
	callq	_ZN4core3ptr46drop_in_place$LT$alloc..vec..Vec$LT$u8$GT$$GT$17he036075ba8e8bfddE
	nop
	.seh_startepilogue
	addq	$40, %rsp
	.seh_endepilogue
	retq
	.seh_endproc

	.def	_ZN4core3ptr42drop_in_place$LT$std..io..error..Error$GT$17h42ad574caf2cb9e9E;
	.scl	3;
	.type	32;
	.endef
	.section	.text,"xr",one_only,_ZN4core3ptr42drop_in_place$LT$std..io..error..Error$GT$17h42ad574caf2cb9e9E,unique,55
	.p2align	4
_ZN4core3ptr42drop_in_place$LT$std..io..error..Error$GT$17h42ad574caf2cb9e9E:
.seh_proc _ZN4core3ptr42drop_in_place$LT$std..io..error..Error$GT$17h42ad574caf2cb9e9E
	subq	$40, %rsp
	.seh_stackalloc 40
	.seh_endprologue
	callq	_ZN4core3ptr57drop_in_place$LT$std..io..error..repr_bitpacked..Repr$GT$17h15cd5422663c11aaE
	nop
	.seh_startepilogue
	addq	$40, %rsp
	.seh_endepilogue
	retq
	.seh_endproc

	.def	_ZN4core3ptr43drop_in_place$LT$std..io..error..Custom$GT$17h7639da0defa51679E;
	.scl	3;
	.type	32;
	.endef
	.section	.text,"xr",one_only,_ZN4core3ptr43drop_in_place$LT$std..io..error..Custom$GT$17h7639da0defa51679E,unique,56
	.p2align	4
_ZN4core3ptr43drop_in_place$LT$std..io..error..Custom$GT$17h7639da0defa51679E:
.seh_proc _ZN4core3ptr43drop_in_place$LT$std..io..error..Custom$GT$17h7639da0defa51679E
	subq	$40, %rsp
	.seh_stackalloc 40
	.seh_endprologue
	callq	_ZN4core3ptr118drop_in_place$LT$alloc..boxed..Box$LT$dyn$u20$core..error..Error$u2b$core..marker..Sync$u2b$core..marker..Send$GT$$GT$17h625d8ef55f0618c7E
	nop
	.seh_startepilogue
	addq	$40, %rsp
	.seh_endepilogue
	retq
	.seh_endproc

	.def	_ZN4core3ptr46drop_in_place$LT$alloc..vec..Vec$LT$u8$GT$$GT$17he036075ba8e8bfddE;
	.scl	3;
	.type	32;
	.endef
	.section	.text,"xr",one_only,_ZN4core3ptr46drop_in_place$LT$alloc..vec..Vec$LT$u8$GT$$GT$17he036075ba8e8bfddE,unique,57
	.p2align	4
_ZN4core3ptr46drop_in_place$LT$alloc..vec..Vec$LT$u8$GT$$GT$17he036075ba8e8bfddE:
.Lfunc_begin12:
.seh_proc _ZN4core3ptr46drop_in_place$LT$alloc..vec..Vec$LT$u8$GT$$GT$17he036075ba8e8bfddE
	.seh_handler __CxxFrameHandler3, @unwind, @except
	pushq	%rbp
	.seh_pushreg %rbp
	subq	$48, %rsp
	.seh_stackalloc 48
	leaq	48(%rsp), %rbp
	.seh_setframe %rbp, 48
	.seh_endprologue
	movq	$-2, -8(%rbp)
	movq	%rcx, -16(%rbp)
.Ltmp166:
	callq	_ZN70_$LT$alloc..vec..Vec$LT$T$C$A$GT$$u20$as$u20$core..ops..drop..Drop$GT$4drop17h0e04776e41c0749dE
.Ltmp167:
	jmp	.LBB56_2
.LBB56_2:
	movq	-16(%rbp), %rcx
	callq	_ZN4core3ptr53drop_in_place$LT$alloc..raw_vec..RawVec$LT$u8$GT$$GT$17h7087a4d66ce124aeE
	nop
	.seh_startepilogue
	addq	$48, %rsp
	popq	%rbp
	.seh_endepilogue
	retq
	.seh_handlerdata
	.long	$cppxdata$_ZN4core3ptr46drop_in_place$LT$alloc..vec..Vec$LT$u8$GT$$GT$17he036075ba8e8bfddE@IMGREL
	.section	.text,"xr",one_only,_ZN4core3ptr46drop_in_place$LT$alloc..vec..Vec$LT$u8$GT$$GT$17he036075ba8e8bfddE,unique,57
	.seh_endproc
	.def	"?dtor$1@?0?_ZN4core3ptr46drop_in_place$LT$alloc..vec..Vec$LT$u8$GT$$GT$17he036075ba8e8bfddE@4HA";
	.scl	3;
	.type	32;
	.endef
	.p2align	4
"?dtor$1@?0?_ZN4core3ptr46drop_in_place$LT$alloc..vec..Vec$LT$u8$GT$$GT$17he036075ba8e8bfddE@4HA":
.seh_proc "?dtor$1@?0?_ZN4core3ptr46drop_in_place$LT$alloc..vec..Vec$LT$u8$GT$$GT$17he036075ba8e8bfddE@4HA"
.LBB56_1:
	movq	%rdx, 16(%rsp)
	pushq	%rbp
	.seh_pushreg %rbp
	subq	$32, %rsp
	.seh_stackalloc 32
	leaq	48(%rdx), %rbp
	.seh_endprologue
	movq	-16(%rbp), %rcx
	callq	_ZN4core3ptr53drop_in_place$LT$alloc..raw_vec..RawVec$LT$u8$GT$$GT$17h7087a4d66ce124aeE
	nop
	.seh_startepilogue
	addq	$32, %rsp
	popq	%rbp
	.seh_endepilogue
	retq
.Lfunc_end12:
	.seh_handlerdata
	.section	.text,"xr",one_only,_ZN4core3ptr46drop_in_place$LT$alloc..vec..Vec$LT$u8$GT$$GT$17he036075ba8e8bfddE,unique,57
	.seh_endproc
	.section	.xdata,"dr",associative,_ZN4core3ptr46drop_in_place$LT$alloc..vec..Vec$LT$u8$GT$$GT$17he036075ba8e8bfddE,unique,12
	.p2align	2, 0x0
$cppxdata$_ZN4core3ptr46drop_in_place$LT$alloc..vec..Vec$LT$u8$GT$$GT$17he036075ba8e8bfddE:
	.long	429065506
	.long	1
	.long	$stateUnwindMap$_ZN4core3ptr46drop_in_place$LT$alloc..vec..Vec$LT$u8$GT$$GT$17he036075ba8e8bfddE@IMGREL
	.long	0
	.long	0
	.long	3
	.long	$ip2state$_ZN4core3ptr46drop_in_place$LT$alloc..vec..Vec$LT$u8$GT$$GT$17he036075ba8e8bfddE@IMGREL
	.long	40
	.long	0
	.long	1
$stateUnwindMap$_ZN4core3ptr46drop_in_place$LT$alloc..vec..Vec$LT$u8$GT$$GT$17he036075ba8e8bfddE:
	.long	-1
	.long	"?dtor$1@?0?_ZN4core3ptr46drop_in_place$LT$alloc..vec..Vec$LT$u8$GT$$GT$17he036075ba8e8bfddE@4HA"@IMGREL
$ip2state$_ZN4core3ptr46drop_in_place$LT$alloc..vec..Vec$LT$u8$GT$$GT$17he036075ba8e8bfddE:
	.long	.Lfunc_begin12@IMGREL
	.long	-1
	.long	.Ltmp166@IMGREL+1
	.long	0
	.long	.Ltmp167@IMGREL+1
	.long	-1
	.section	.text,"xr",one_only,_ZN4core3ptr46drop_in_place$LT$alloc..vec..Vec$LT$u8$GT$$GT$17he036075ba8e8bfddE,unique,57

	.def	_ZN4core3ptr47drop_in_place$LT$std..ffi..os_str..OsString$GT$17h22eedc972ab73881E;
	.scl	3;
	.type	32;
	.endef
	.section	.text,"xr",one_only,_ZN4core3ptr47drop_in_place$LT$std..ffi..os_str..OsString$GT$17h22eedc972ab73881E,unique,58
	.p2align	4
_ZN4core3ptr47drop_in_place$LT$std..ffi..os_str..OsString$GT$17h22eedc972ab73881E:
.seh_proc _ZN4core3ptr47drop_in_place$LT$std..ffi..os_str..OsString$GT$17h22eedc972ab73881E
	subq	$40, %rsp
	.seh_stackalloc 40
	.seh_endprologue
	callq	_ZN4core3ptr48drop_in_place$LT$std..sys..os_str..wtf8..Buf$GT$17hfae5cb68afb4de15E
	nop
	.seh_startepilogue
	addq	$40, %rsp
	.seh_endepilogue
	retq
	.seh_endproc

	.def	_ZN4core3ptr48drop_in_place$LT$std..sys..os_str..wtf8..Buf$GT$17hfae5cb68afb4de15E;
	.scl	3;
	.type	32;
	.endef
	.section	.text,"xr",one_only,_ZN4core3ptr48drop_in_place$LT$std..sys..os_str..wtf8..Buf$GT$17hfae5cb68afb4de15E,unique,59
	.p2align	4
_ZN4core3ptr48drop_in_place$LT$std..sys..os_str..wtf8..Buf$GT$17hfae5cb68afb4de15E:
.seh_proc _ZN4core3ptr48drop_in_place$LT$std..sys..os_str..wtf8..Buf$GT$17hfae5cb68afb4de15E
	subq	$40, %rsp
	.seh_stackalloc 40
	.seh_endprologue
	callq	_ZN4core3ptr41drop_in_place$LT$alloc..wtf8..Wtf8Buf$GT$17hf44f168ae1e9053dE
	nop
	.seh_startepilogue
	addq	$40, %rsp
	.seh_endepilogue
	retq
	.seh_endproc

	.def	_ZN4core3ptr49drop_in_place$LT$std..sys..args..common..Args$GT$17h93940c55f89931d1E;
	.scl	3;
	.type	32;
	.endef
	.section	.text,"xr",one_only,_ZN4core3ptr49drop_in_place$LT$std..sys..args..common..Args$GT$17h93940c55f89931d1E,unique,60
	.p2align	4
_ZN4core3ptr49drop_in_place$LT$std..sys..args..common..Args$GT$17h93940c55f89931d1E:
.seh_proc _ZN4core3ptr49drop_in_place$LT$std..sys..args..common..Args$GT$17h93940c55f89931d1E
	subq	$40, %rsp
	.seh_stackalloc 40
	.seh_endprologue
	callq	_ZN4core3ptr86drop_in_place$LT$alloc..vec..into_iter..IntoIter$LT$std..ffi..os_str..OsString$GT$$GT$17h8a3dd6f39cbcf854E
	nop
	.seh_startepilogue
	addq	$40, %rsp
	.seh_endepilogue
	retq
	.seh_endproc

	.def	_ZN4core3ptr51drop_in_place$LT$alloc..vec..Vec$LT$$RF$str$GT$$GT$17hefdd812e6e4a1bcfE;
	.scl	3;
	.type	32;
	.endef
	.section	.text,"xr",one_only,_ZN4core3ptr51drop_in_place$LT$alloc..vec..Vec$LT$$RF$str$GT$$GT$17hefdd812e6e4a1bcfE,unique,61
	.p2align	4
_ZN4core3ptr51drop_in_place$LT$alloc..vec..Vec$LT$$RF$str$GT$$GT$17hefdd812e6e4a1bcfE:
.Lfunc_begin13:
.seh_proc _ZN4core3ptr51drop_in_place$LT$alloc..vec..Vec$LT$$RF$str$GT$$GT$17hefdd812e6e4a1bcfE
	.seh_handler __CxxFrameHandler3, @unwind, @except
	pushq	%rbp
	.seh_pushreg %rbp
	subq	$48, %rsp
	.seh_stackalloc 48
	leaq	48(%rsp), %rbp
	.seh_setframe %rbp, 48
	.seh_endprologue
	movq	$-2, -8(%rbp)
	movq	%rcx, -16(%rbp)
.Ltmp168:
	callq	_ZN70_$LT$alloc..vec..Vec$LT$T$C$A$GT$$u20$as$u20$core..ops..drop..Drop$GT$4drop17h7e31c4a250759d2eE
.Ltmp169:
	jmp	.LBB60_2
.LBB60_2:
	movq	-16(%rbp), %rcx
	callq	_ZN4core3ptr58drop_in_place$LT$alloc..raw_vec..RawVec$LT$$RF$str$GT$$GT$17hf15b422688aef2ecE
	nop
	.seh_startepilogue
	addq	$48, %rsp
	popq	%rbp
	.seh_endepilogue
	retq
	.seh_handlerdata
	.long	$cppxdata$_ZN4core3ptr51drop_in_place$LT$alloc..vec..Vec$LT$$RF$str$GT$$GT$17hefdd812e6e4a1bcfE@IMGREL
	.section	.text,"xr",one_only,_ZN4core3ptr51drop_in_place$LT$alloc..vec..Vec$LT$$RF$str$GT$$GT$17hefdd812e6e4a1bcfE,unique,61
	.seh_endproc
	.def	"?dtor$1@?0?_ZN4core3ptr51drop_in_place$LT$alloc..vec..Vec$LT$$RF$str$GT$$GT$17hefdd812e6e4a1bcfE@4HA";
	.scl	3;
	.type	32;
	.endef
	.p2align	4
"?dtor$1@?0?_ZN4core3ptr51drop_in_place$LT$alloc..vec..Vec$LT$$RF$str$GT$$GT$17hefdd812e6e4a1bcfE@4HA":
.seh_proc "?dtor$1@?0?_ZN4core3ptr51drop_in_place$LT$alloc..vec..Vec$LT$$RF$str$GT$$GT$17hefdd812e6e4a1bcfE@4HA"
.LBB60_1:
	movq	%rdx, 16(%rsp)
	pushq	%rbp
	.seh_pushreg %rbp
	subq	$32, %rsp
	.seh_stackalloc 32
	leaq	48(%rdx), %rbp
	.seh_endprologue
	movq	-16(%rbp), %rcx
	callq	_ZN4core3ptr58drop_in_place$LT$alloc..raw_vec..RawVec$LT$$RF$str$GT$$GT$17hf15b422688aef2ecE
	nop
	.seh_startepilogue
	addq	$32, %rsp
	popq	%rbp
	.seh_endepilogue
	retq
.Lfunc_end13:
	.seh_handlerdata
	.section	.text,"xr",one_only,_ZN4core3ptr51drop_in_place$LT$alloc..vec..Vec$LT$$RF$str$GT$$GT$17hefdd812e6e4a1bcfE,unique,61
	.seh_endproc
	.section	.xdata,"dr",associative,_ZN4core3ptr51drop_in_place$LT$alloc..vec..Vec$LT$$RF$str$GT$$GT$17hefdd812e6e4a1bcfE,unique,13
	.p2align	2, 0x0
$cppxdata$_ZN4core3ptr51drop_in_place$LT$alloc..vec..Vec$LT$$RF$str$GT$$GT$17hefdd812e6e4a1bcfE:
	.long	429065506
	.long	1
	.long	$stateUnwindMap$_ZN4core3ptr51drop_in_place$LT$alloc..vec..Vec$LT$$RF$str$GT$$GT$17hefdd812e6e4a1bcfE@IMGREL
	.long	0
	.long	0
	.long	3
	.long	$ip2state$_ZN4core3ptr51drop_in_place$LT$alloc..vec..Vec$LT$$RF$str$GT$$GT$17hefdd812e6e4a1bcfE@IMGREL
	.long	40
	.long	0
	.long	1
$stateUnwindMap$_ZN4core3ptr51drop_in_place$LT$alloc..vec..Vec$LT$$RF$str$GT$$GT$17hefdd812e6e4a1bcfE:
	.long	-1
	.long	"?dtor$1@?0?_ZN4core3ptr51drop_in_place$LT$alloc..vec..Vec$LT$$RF$str$GT$$GT$17hefdd812e6e4a1bcfE@4HA"@IMGREL
$ip2state$_ZN4core3ptr51drop_in_place$LT$alloc..vec..Vec$LT$$RF$str$GT$$GT$17hefdd812e6e4a1bcfE:
	.long	.Lfunc_begin13@IMGREL
	.long	-1
	.long	.Ltmp168@IMGREL+1
	.long	0
	.long	.Ltmp169@IMGREL+1
	.long	-1
	.section	.text,"xr",one_only,_ZN4core3ptr51drop_in_place$LT$alloc..vec..Vec$LT$$RF$str$GT$$GT$17hefdd812e6e4a1bcfE,unique,61

	.def	_ZN4core3ptr52drop_in_place$LT$$u5b$alloc..string..String$u5d$$GT$17h7ec239ea9fac789eE;
	.scl	3;
	.type	32;
	.endef
	.section	.text,"xr",one_only,_ZN4core3ptr52drop_in_place$LT$$u5b$alloc..string..String$u5d$$GT$17h7ec239ea9fac789eE,unique,62
	.p2align	4
_ZN4core3ptr52drop_in_place$LT$$u5b$alloc..string..String$u5d$$GT$17h7ec239ea9fac789eE:
.Lfunc_begin14:
.seh_proc _ZN4core3ptr52drop_in_place$LT$$u5b$alloc..string..String$u5d$$GT$17h7ec239ea9fac789eE
	.seh_handler __CxxFrameHandler3, @unwind, @except
	pushq	%rbp
	.seh_pushreg %rbp
	subq	$64, %rsp
	.seh_stackalloc 64
	leaq	64(%rsp), %rbp
	.seh_setframe %rbp, 64
	.seh_endprologue
	movq	$-2, -8(%rbp)
	movq	%rdx, -32(%rbp)
	movq	%rcx, -24(%rbp)
	movq	$0, -16(%rbp)
.LBB61_1:
	movq	-32(%rbp), %rax
	cmpq	%rax, -16(%rbp)
	je	.LBB61_3
	movq	-24(%rbp), %rcx
	movq	-16(%rbp), %rax
	leaq	(%rax,%rax,2), %rdx
	leaq	(%rcx,%rdx,8), %rcx
	incq	%rax
	movq	%rax, -16(%rbp)
.Ltmp170:
	callq	_ZN4core3ptr42drop_in_place$LT$alloc..string..String$GT$17hefd3488d5dba1b13E
.Ltmp171:
	jmp	.LBB61_1
.LBB61_3:
	.seh_startepilogue
	addq	$64, %rsp
	popq	%rbp
	.seh_endepilogue
	retq
.LBB61_4:
	movq	-32(%rbp), %rax
	cmpq	%rax, -16(%rbp)
	je	.LBB61_7
	jmp	.LBB61_6
	.seh_handlerdata
	.long	$cppxdata$_ZN4core3ptr52drop_in_place$LT$$u5b$alloc..string..String$u5d$$GT$17h7ec239ea9fac789eE@IMGREL
	.section	.text,"xr",one_only,_ZN4core3ptr52drop_in_place$LT$$u5b$alloc..string..String$u5d$$GT$17h7ec239ea9fac789eE,unique,62
	.seh_endproc
	.def	"?dtor$5@?0?_ZN4core3ptr52drop_in_place$LT$$u5b$alloc..string..String$u5d$$GT$17h7ec239ea9fac789eE@4HA";
	.scl	3;
	.type	32;
	.endef
	.p2align	4
"?dtor$5@?0?_ZN4core3ptr52drop_in_place$LT$$u5b$alloc..string..String$u5d$$GT$17h7ec239ea9fac789eE@4HA":
.seh_proc "?dtor$5@?0?_ZN4core3ptr52drop_in_place$LT$$u5b$alloc..string..String$u5d$$GT$17h7ec239ea9fac789eE@4HA"
.LBB61_5:
	movq	%rdx, 16(%rsp)
	pushq	%rbp
	.seh_pushreg %rbp
	subq	$32, %rsp
	.seh_stackalloc 32
	leaq	64(%rdx), %rbp
	.seh_endprologue
	jmp	.LBB61_4
.LBB61_6:
	movq	-24(%rbp), %rcx
	imulq	$24, -16(%rbp), %rax
	addq	%rax, %rcx
	movq	-16(%rbp), %rax
	addq	$1, %rax
	movq	%rax, -16(%rbp)
	callq	_ZN4core3ptr42drop_in_place$LT$alloc..string..String$GT$17hefd3488d5dba1b13E
	jmp	.LBB61_4
.LBB61_7:
	.seh_startepilogue
	addq	$32, %rsp
	popq	%rbp
	.seh_endepilogue
	retq
.Lfunc_end14:
	.seh_handlerdata
	.section	.text,"xr",one_only,_ZN4core3ptr52drop_in_place$LT$$u5b$alloc..string..String$u5d$$GT$17h7ec239ea9fac789eE,unique,62
	.seh_endproc
	.section	.xdata,"dr",associative,_ZN4core3ptr52drop_in_place$LT$$u5b$alloc..string..String$u5d$$GT$17h7ec239ea9fac789eE,unique,14
	.p2align	2, 0x0
$cppxdata$_ZN4core3ptr52drop_in_place$LT$$u5b$alloc..string..String$u5d$$GT$17h7ec239ea9fac789eE:
	.long	429065506
	.long	1
	.long	$stateUnwindMap$_ZN4core3ptr52drop_in_place$LT$$u5b$alloc..string..String$u5d$$GT$17h7ec239ea9fac789eE@IMGREL
	.long	0
	.long	0
	.long	3
	.long	$ip2state$_ZN4core3ptr52drop_in_place$LT$$u5b$alloc..string..String$u5d$$GT$17h7ec239ea9fac789eE@IMGREL
	.long	56
	.long	0
	.long	1
$stateUnwindMap$_ZN4core3ptr52drop_in_place$LT$$u5b$alloc..string..String$u5d$$GT$17h7ec239ea9fac789eE:
	.long	-1
	.long	"?dtor$5@?0?_ZN4core3ptr52drop_in_place$LT$$u5b$alloc..string..String$u5d$$GT$17h7ec239ea9fac789eE@4HA"@IMGREL
$ip2state$_ZN4core3ptr52drop_in_place$LT$$u5b$alloc..string..String$u5d$$GT$17h7ec239ea9fac789eE:
	.long	.Lfunc_begin14@IMGREL
	.long	-1
	.long	.Ltmp170@IMGREL+1
	.long	0
	.long	.Ltmp171@IMGREL+1
	.long	-1
	.section	.text,"xr",one_only,_ZN4core3ptr52drop_in_place$LT$$u5b$alloc..string..String$u5d$$GT$17h7ec239ea9fac789eE,unique,62

	.def	_ZN4core3ptr53drop_in_place$LT$alloc..raw_vec..RawVec$LT$u8$GT$$GT$17h7087a4d66ce124aeE;
	.scl	3;
	.type	32;
	.endef
	.section	.text,"xr",one_only,_ZN4core3ptr53drop_in_place$LT$alloc..raw_vec..RawVec$LT$u8$GT$$GT$17h7087a4d66ce124aeE,unique,63
	.p2align	4
_ZN4core3ptr53drop_in_place$LT$alloc..raw_vec..RawVec$LT$u8$GT$$GT$17h7087a4d66ce124aeE:
.seh_proc _ZN4core3ptr53drop_in_place$LT$alloc..raw_vec..RawVec$LT$u8$GT$$GT$17h7087a4d66ce124aeE
	subq	$40, %rsp
	.seh_stackalloc 40
	.seh_endprologue
	callq	_ZN77_$LT$alloc..raw_vec..RawVec$LT$T$C$A$GT$$u20$as$u20$core..ops..drop..Drop$GT$4drop17h927670c5407c5c16E
	nop
	.seh_startepilogue
	addq	$40, %rsp
	.seh_endepilogue
	retq
	.seh_endproc

	.def	_ZN4core3ptr57drop_in_place$LT$$u5b$std..ffi..os_str..OsString$u5d$$GT$17hd442a2600821c021E;
	.scl	3;
	.type	32;
	.endef
	.section	.text,"xr",one_only,_ZN4core3ptr57drop_in_place$LT$$u5b$std..ffi..os_str..OsString$u5d$$GT$17hd442a2600821c021E,unique,64
	.p2align	4
_ZN4core3ptr57drop_in_place$LT$$u5b$std..ffi..os_str..OsString$u5d$$GT$17hd442a2600821c021E:
.Lfunc_begin15:
.seh_proc _ZN4core3ptr57drop_in_place$LT$$u5b$std..ffi..os_str..OsString$u5d$$GT$17hd442a2600821c021E
	.seh_handler __CxxFrameHandler3, @unwind, @except
	pushq	%rbp
	.seh_pushreg %rbp
	subq	$64, %rsp
	.seh_stackalloc 64
	leaq	64(%rsp), %rbp
	.seh_setframe %rbp, 64
	.seh_endprologue
	movq	$-2, -8(%rbp)
	movq	%rdx, -32(%rbp)
	movq	%rcx, -24(%rbp)
	movq	$0, -16(%rbp)
.LBB63_1:
	movq	-32(%rbp), %rax
	cmpq	%rax, -16(%rbp)
	je	.LBB63_3
	movq	-24(%rbp), %rcx
	movq	-16(%rbp), %rax
	movq	%rax, %rdx
	shlq	$5, %rdx
	addq	%rdx, %rcx
	incq	%rax
	movq	%rax, -16(%rbp)
.Ltmp172:
	callq	_ZN4core3ptr47drop_in_place$LT$std..ffi..os_str..OsString$GT$17h22eedc972ab73881E
.Ltmp173:
	jmp	.LBB63_1
.LBB63_3:
	.seh_startepilogue
	addq	$64, %rsp
	popq	%rbp
	.seh_endepilogue
	retq
.LBB63_4:
	movq	-32(%rbp), %rax
	cmpq	%rax, -16(%rbp)
	je	.LBB63_7
	jmp	.LBB63_6
	.seh_handlerdata
	.long	$cppxdata$_ZN4core3ptr57drop_in_place$LT$$u5b$std..ffi..os_str..OsString$u5d$$GT$17hd442a2600821c021E@IMGREL
	.section	.text,"xr",one_only,_ZN4core3ptr57drop_in_place$LT$$u5b$std..ffi..os_str..OsString$u5d$$GT$17hd442a2600821c021E,unique,64
	.seh_endproc
	.def	"?dtor$5@?0?_ZN4core3ptr57drop_in_place$LT$$u5b$std..ffi..os_str..OsString$u5d$$GT$17hd442a2600821c021E@4HA";
	.scl	3;
	.type	32;
	.endef
	.p2align	4
"?dtor$5@?0?_ZN4core3ptr57drop_in_place$LT$$u5b$std..ffi..os_str..OsString$u5d$$GT$17hd442a2600821c021E@4HA":
.seh_proc "?dtor$5@?0?_ZN4core3ptr57drop_in_place$LT$$u5b$std..ffi..os_str..OsString$u5d$$GT$17hd442a2600821c021E@4HA"
.LBB63_5:
	movq	%rdx, 16(%rsp)
	pushq	%rbp
	.seh_pushreg %rbp
	subq	$32, %rsp
	.seh_stackalloc 32
	leaq	64(%rdx), %rbp
	.seh_endprologue
	jmp	.LBB63_4
.LBB63_6:
	movq	-24(%rbp), %rcx
	movq	-16(%rbp), %rax
	shlq	$5, %rax
	addq	%rax, %rcx
	movq	-16(%rbp), %rax
	addq	$1, %rax
	movq	%rax, -16(%rbp)
	callq	_ZN4core3ptr47drop_in_place$LT$std..ffi..os_str..OsString$GT$17h22eedc972ab73881E
	jmp	.LBB63_4
.LBB63_7:
	.seh_startepilogue
	addq	$32, %rsp
	popq	%rbp
	.seh_endepilogue
	retq
.Lfunc_end15:
	.seh_handlerdata
	.section	.text,"xr",one_only,_ZN4core3ptr57drop_in_place$LT$$u5b$std..ffi..os_str..OsString$u5d$$GT$17hd442a2600821c021E,unique,64
	.seh_endproc
	.section	.xdata,"dr",associative,_ZN4core3ptr57drop_in_place$LT$$u5b$std..ffi..os_str..OsString$u5d$$GT$17hd442a2600821c021E,unique,15
	.p2align	2, 0x0
$cppxdata$_ZN4core3ptr57drop_in_place$LT$$u5b$std..ffi..os_str..OsString$u5d$$GT$17hd442a2600821c021E:
	.long	429065506
	.long	1
	.long	$stateUnwindMap$_ZN4core3ptr57drop_in_place$LT$$u5b$std..ffi..os_str..OsString$u5d$$GT$17hd442a2600821c021E@IMGREL
	.long	0
	.long	0
	.long	3
	.long	$ip2state$_ZN4core3ptr57drop_in_place$LT$$u5b$std..ffi..os_str..OsString$u5d$$GT$17hd442a2600821c021E@IMGREL
	.long	56
	.long	0
	.long	1
$stateUnwindMap$_ZN4core3ptr57drop_in_place$LT$$u5b$std..ffi..os_str..OsString$u5d$$GT$17hd442a2600821c021E:
	.long	-1
	.long	"?dtor$5@?0?_ZN4core3ptr57drop_in_place$LT$$u5b$std..ffi..os_str..OsString$u5d$$GT$17hd442a2600821c021E@4HA"@IMGREL
$ip2state$_ZN4core3ptr57drop_in_place$LT$$u5b$std..ffi..os_str..OsString$u5d$$GT$17hd442a2600821c021E:
	.long	.Lfunc_begin15@IMGREL
	.long	-1
	.long	.Ltmp172@IMGREL+1
	.long	0
	.long	.Ltmp173@IMGREL+1
	.long	-1
	.section	.text,"xr",one_only,_ZN4core3ptr57drop_in_place$LT$$u5b$std..ffi..os_str..OsString$u5d$$GT$17hd442a2600821c021E,unique,64

	.def	_ZN4core3ptr57drop_in_place$LT$std..io..error..repr_bitpacked..Repr$GT$17h15cd5422663c11aaE;
	.scl	3;
	.type	32;
	.endef
	.section	.text,"xr",one_only,_ZN4core3ptr57drop_in_place$LT$std..io..error..repr_bitpacked..Repr$GT$17h15cd5422663c11aaE,unique,65
	.p2align	4
_ZN4core3ptr57drop_in_place$LT$std..io..error..repr_bitpacked..Repr$GT$17h15cd5422663c11aaE:
.seh_proc _ZN4core3ptr57drop_in_place$LT$std..io..error..repr_bitpacked..Repr$GT$17h15cd5422663c11aaE
	subq	$40, %rsp
	.seh_stackalloc 40
	.seh_endprologue
	callq	_ZN78_$LT$std..io..error..repr_bitpacked..Repr$u20$as$u20$core..ops..drop..Drop$GT$4drop17h35459eaae5beaba8E
	nop
	.seh_startepilogue
	addq	$40, %rsp
	.seh_endepilogue
	retq
	.seh_endproc

	.def	_ZN4core3ptr58drop_in_place$LT$alloc..raw_vec..RawVec$LT$$RF$str$GT$$GT$17hf15b422688aef2ecE;
	.scl	3;
	.type	32;
	.endef
	.section	.text,"xr",one_only,_ZN4core3ptr58drop_in_place$LT$alloc..raw_vec..RawVec$LT$$RF$str$GT$$GT$17hf15b422688aef2ecE,unique,66
	.p2align	4
_ZN4core3ptr58drop_in_place$LT$alloc..raw_vec..RawVec$LT$$RF$str$GT$$GT$17hf15b422688aef2ecE:
.seh_proc _ZN4core3ptr58drop_in_place$LT$alloc..raw_vec..RawVec$LT$$RF$str$GT$$GT$17hf15b422688aef2ecE
	subq	$40, %rsp
	.seh_stackalloc 40
	.seh_endprologue
	callq	_ZN77_$LT$alloc..raw_vec..RawVec$LT$T$C$A$GT$$u20$as$u20$core..ops..drop..Drop$GT$4drop17h9aead21db8bc2302E
	nop
	.seh_startepilogue
	addq	$40, %rsp
	.seh_endepilogue
	retq
	.seh_endproc

	.def	_ZN4core3ptr65drop_in_place$LT$alloc..vec..Vec$LT$alloc..string..String$GT$$GT$17h3cc1bced90b3dec7E;
	.scl	3;
	.type	32;
	.endef
	.section	.text,"xr",one_only,_ZN4core3ptr65drop_in_place$LT$alloc..vec..Vec$LT$alloc..string..String$GT$$GT$17h3cc1bced90b3dec7E,unique,67
	.p2align	4
_ZN4core3ptr65drop_in_place$LT$alloc..vec..Vec$LT$alloc..string..String$GT$$GT$17h3cc1bced90b3dec7E:
.Lfunc_begin16:
.seh_proc _ZN4core3ptr65drop_in_place$LT$alloc..vec..Vec$LT$alloc..string..String$GT$$GT$17h3cc1bced90b3dec7E
	.seh_handler __CxxFrameHandler3, @unwind, @except
	pushq	%rbp
	.seh_pushreg %rbp
	subq	$48, %rsp
	.seh_stackalloc 48
	leaq	48(%rsp), %rbp
	.seh_setframe %rbp, 48
	.seh_endprologue
	movq	$-2, -8(%rbp)
	movq	%rcx, -16(%rbp)
.Ltmp174:
	callq	_ZN70_$LT$alloc..vec..Vec$LT$T$C$A$GT$$u20$as$u20$core..ops..drop..Drop$GT$4drop17h7278ad709ade84d4E
.Ltmp175:
	jmp	.LBB66_2
.LBB66_2:
	movq	-16(%rbp), %rcx
	callq	_ZN4core3ptr72drop_in_place$LT$alloc..raw_vec..RawVec$LT$alloc..string..String$GT$$GT$17h645255012a30a881E
	nop
	.seh_startepilogue
	addq	$48, %rsp
	popq	%rbp
	.seh_endepilogue
	retq
	.seh_handlerdata
	.long	$cppxdata$_ZN4core3ptr65drop_in_place$LT$alloc..vec..Vec$LT$alloc..string..String$GT$$GT$17h3cc1bced90b3dec7E@IMGREL
	.section	.text,"xr",one_only,_ZN4core3ptr65drop_in_place$LT$alloc..vec..Vec$LT$alloc..string..String$GT$$GT$17h3cc1bced90b3dec7E,unique,67
	.seh_endproc
	.def	"?dtor$1@?0?_ZN4core3ptr65drop_in_place$LT$alloc..vec..Vec$LT$alloc..string..String$GT$$GT$17h3cc1bced90b3dec7E@4HA";
	.scl	3;
	.type	32;
	.endef
	.p2align	4
"?dtor$1@?0?_ZN4core3ptr65drop_in_place$LT$alloc..vec..Vec$LT$alloc..string..String$GT$$GT$17h3cc1bced90b3dec7E@4HA":
.seh_proc "?dtor$1@?0?_ZN4core3ptr65drop_in_place$LT$alloc..vec..Vec$LT$alloc..string..String$GT$$GT$17h3cc1bced90b3dec7E@4HA"
.LBB66_1:
	movq	%rdx, 16(%rsp)
	pushq	%rbp
	.seh_pushreg %rbp
	subq	$32, %rsp
	.seh_stackalloc 32
	leaq	48(%rdx), %rbp
	.seh_endprologue
	movq	-16(%rbp), %rcx
	callq	_ZN4core3ptr72drop_in_place$LT$alloc..raw_vec..RawVec$LT$alloc..string..String$GT$$GT$17h645255012a30a881E
	nop
	.seh_startepilogue
	addq	$32, %rsp
	popq	%rbp
	.seh_endepilogue
	retq
.Lfunc_end16:
	.seh_handlerdata
	.section	.text,"xr",one_only,_ZN4core3ptr65drop_in_place$LT$alloc..vec..Vec$LT$alloc..string..String$GT$$GT$17h3cc1bced90b3dec7E,unique,67
	.seh_endproc
	.section	.xdata,"dr",associative,_ZN4core3ptr65drop_in_place$LT$alloc..vec..Vec$LT$alloc..string..String$GT$$GT$17h3cc1bced90b3dec7E,unique,16
	.p2align	2, 0x0
$cppxdata$_ZN4core3ptr65drop_in_place$LT$alloc..vec..Vec$LT$alloc..string..String$GT$$GT$17h3cc1bced90b3dec7E:
	.long	429065506
	.long	1
	.long	$stateUnwindMap$_ZN4core3ptr65drop_in_place$LT$alloc..vec..Vec$LT$alloc..string..String$GT$$GT$17h3cc1bced90b3dec7E@IMGREL
	.long	0
	.long	0
	.long	3
	.long	$ip2state$_ZN4core3ptr65drop_in_place$LT$alloc..vec..Vec$LT$alloc..string..String$GT$$GT$17h3cc1bced90b3dec7E@IMGREL
	.long	40
	.long	0
	.long	1
$stateUnwindMap$_ZN4core3ptr65drop_in_place$LT$alloc..vec..Vec$LT$alloc..string..String$GT$$GT$17h3cc1bced90b3dec7E:
	.long	-1
	.long	"?dtor$1@?0?_ZN4core3ptr65drop_in_place$LT$alloc..vec..Vec$LT$alloc..string..String$GT$$GT$17h3cc1bced90b3dec7E@4HA"@IMGREL
$ip2state$_ZN4core3ptr65drop_in_place$LT$alloc..vec..Vec$LT$alloc..string..String$GT$$GT$17h3cc1bced90b3dec7E:
	.long	.Lfunc_begin16@IMGREL
	.long	-1
	.long	.Ltmp174@IMGREL+1
	.long	0
	.long	.Ltmp175@IMGREL+1
	.long	-1
	.section	.text,"xr",one_only,_ZN4core3ptr65drop_in_place$LT$alloc..vec..Vec$LT$alloc..string..String$GT$$GT$17h3cc1bced90b3dec7E,unique,67

	.def	_ZN4core3ptr67drop_in_place$LT$alloc..vec..into_iter..IntoIter$LT$$RF$str$GT$$GT$17hc5ae70553ea10be4E;
	.scl	3;
	.type	32;
	.endef
	.section	.text,"xr",one_only,_ZN4core3ptr67drop_in_place$LT$alloc..vec..into_iter..IntoIter$LT$$RF$str$GT$$GT$17hc5ae70553ea10be4E,unique,68
	.p2align	4
_ZN4core3ptr67drop_in_place$LT$alloc..vec..into_iter..IntoIter$LT$$RF$str$GT$$GT$17hc5ae70553ea10be4E:
.seh_proc _ZN4core3ptr67drop_in_place$LT$alloc..vec..into_iter..IntoIter$LT$$RF$str$GT$$GT$17hc5ae70553ea10be4E
	subq	$40, %rsp
	.seh_stackalloc 40
	.seh_endprologue
	callq	_ZN86_$LT$alloc..vec..into_iter..IntoIter$LT$T$C$A$GT$$u20$as$u20$core..ops..drop..Drop$GT$4drop17hce1d988a8552e7d7E
	nop
	.seh_startepilogue
	addq	$40, %rsp
	.seh_endepilogue
	retq
	.seh_endproc

	.def	_ZN4core3ptr68drop_in_place$LT$alloc..boxed..Box$LT$std..io..error..Custom$GT$$GT$17h22c40497a49c985eE;
	.scl	3;
	.type	32;
	.endef
	.section	.text,"xr",one_only,_ZN4core3ptr68drop_in_place$LT$alloc..boxed..Box$LT$std..io..error..Custom$GT$$GT$17h22c40497a49c985eE,unique,69
	.p2align	4
_ZN4core3ptr68drop_in_place$LT$alloc..boxed..Box$LT$std..io..error..Custom$GT$$GT$17h22c40497a49c985eE:
.Lfunc_begin17:
.seh_proc _ZN4core3ptr68drop_in_place$LT$alloc..boxed..Box$LT$std..io..error..Custom$GT$$GT$17h22c40497a49c985eE
	.seh_handler __CxxFrameHandler3, @unwind, @except
	pushq	%rbp
	.seh_pushreg %rbp
	subq	$48, %rsp
	.seh_stackalloc 48
	leaq	48(%rsp), %rbp
	.seh_setframe %rbp, 48
	.seh_endprologue
	movq	$-2, -8(%rbp)
	movq	%rcx, -16(%rbp)
	movq	(%rcx), %rcx
.Ltmp176:
	callq	_ZN4core3ptr43drop_in_place$LT$std..io..error..Custom$GT$17h7639da0defa51679E
.Ltmp177:
	jmp	.LBB68_2
.LBB68_2:
	movq	-16(%rbp), %rcx
	callq	_ZN72_$LT$alloc..boxed..Box$LT$T$C$A$GT$$u20$as$u20$core..ops..drop..Drop$GT$4drop17h027e28e586e1cdddE
	nop
	.seh_startepilogue
	addq	$48, %rsp
	popq	%rbp
	.seh_endepilogue
	retq
	.seh_handlerdata
	.long	$cppxdata$_ZN4core3ptr68drop_in_place$LT$alloc..boxed..Box$LT$std..io..error..Custom$GT$$GT$17h22c40497a49c985eE@IMGREL
	.section	.text,"xr",one_only,_ZN4core3ptr68drop_in_place$LT$alloc..boxed..Box$LT$std..io..error..Custom$GT$$GT$17h22c40497a49c985eE,unique,69
	.seh_endproc
	.def	"?dtor$1@?0?_ZN4core3ptr68drop_in_place$LT$alloc..boxed..Box$LT$std..io..error..Custom$GT$$GT$17h22c40497a49c985eE@4HA";
	.scl	3;
	.type	32;
	.endef
	.p2align	4
"?dtor$1@?0?_ZN4core3ptr68drop_in_place$LT$alloc..boxed..Box$LT$std..io..error..Custom$GT$$GT$17h22c40497a49c985eE@4HA":
.seh_proc "?dtor$1@?0?_ZN4core3ptr68drop_in_place$LT$alloc..boxed..Box$LT$std..io..error..Custom$GT$$GT$17h22c40497a49c985eE@4HA"
.LBB68_1:
	movq	%rdx, 16(%rsp)
	pushq	%rbp
	.seh_pushreg %rbp
	subq	$32, %rsp
	.seh_stackalloc 32
	leaq	48(%rdx), %rbp
	.seh_endprologue
	movq	-16(%rbp), %rcx
	callq	_ZN72_$LT$alloc..boxed..Box$LT$T$C$A$GT$$u20$as$u20$core..ops..drop..Drop$GT$4drop17h027e28e586e1cdddE
	nop
	.seh_startepilogue
	addq	$32, %rsp
	popq	%rbp
	.seh_endepilogue
	retq
.Lfunc_end17:
	.seh_handlerdata
	.section	.text,"xr",one_only,_ZN4core3ptr68drop_in_place$LT$alloc..boxed..Box$LT$std..io..error..Custom$GT$$GT$17h22c40497a49c985eE,unique,69
	.seh_endproc
	.section	.xdata,"dr",associative,_ZN4core3ptr68drop_in_place$LT$alloc..boxed..Box$LT$std..io..error..Custom$GT$$GT$17h22c40497a49c985eE,unique,17
	.p2align	2, 0x0
$cppxdata$_ZN4core3ptr68drop_in_place$LT$alloc..boxed..Box$LT$std..io..error..Custom$GT$$GT$17h22c40497a49c985eE:
	.long	429065506
	.long	1
	.long	$stateUnwindMap$_ZN4core3ptr68drop_in_place$LT$alloc..boxed..Box$LT$std..io..error..Custom$GT$$GT$17h22c40497a49c985eE@IMGREL
	.long	0
	.long	0
	.long	3
	.long	$ip2state$_ZN4core3ptr68drop_in_place$LT$alloc..boxed..Box$LT$std..io..error..Custom$GT$$GT$17h22c40497a49c985eE@IMGREL
	.long	40
	.long	0
	.long	1
$stateUnwindMap$_ZN4core3ptr68drop_in_place$LT$alloc..boxed..Box$LT$std..io..error..Custom$GT$$GT$17h22c40497a49c985eE:
	.long	-1
	.long	"?dtor$1@?0?_ZN4core3ptr68drop_in_place$LT$alloc..boxed..Box$LT$std..io..error..Custom$GT$$GT$17h22c40497a49c985eE@4HA"@IMGREL
$ip2state$_ZN4core3ptr68drop_in_place$LT$alloc..boxed..Box$LT$std..io..error..Custom$GT$$GT$17h22c40497a49c985eE:
	.long	.Lfunc_begin17@IMGREL
	.long	-1
	.long	.Ltmp176@IMGREL+1
	.long	0
	.long	.Ltmp177@IMGREL+1
	.long	-1
	.section	.text,"xr",one_only,_ZN4core3ptr68drop_in_place$LT$alloc..boxed..Box$LT$std..io..error..Custom$GT$$GT$17h22c40497a49c985eE,unique,69

	.def	_ZN4core3ptr72drop_in_place$LT$alloc..raw_vec..RawVec$LT$alloc..string..String$GT$$GT$17h645255012a30a881E;
	.scl	3;
	.type	32;
	.endef
	.section	.text,"xr",one_only,_ZN4core3ptr72drop_in_place$LT$alloc..raw_vec..RawVec$LT$alloc..string..String$GT$$GT$17h645255012a30a881E,unique,70
	.p2align	4
_ZN4core3ptr72drop_in_place$LT$alloc..raw_vec..RawVec$LT$alloc..string..String$GT$$GT$17h645255012a30a881E:
.seh_proc _ZN4core3ptr72drop_in_place$LT$alloc..raw_vec..RawVec$LT$alloc..string..String$GT$$GT$17h645255012a30a881E
	subq	$40, %rsp
	.seh_stackalloc 40
	.seh_endprologue
	callq	_ZN77_$LT$alloc..raw_vec..RawVec$LT$T$C$A$GT$$u20$as$u20$core..ops..drop..Drop$GT$4drop17ha9d743f5a81a4fb2E
	nop
	.seh_startepilogue
	addq	$40, %rsp
	.seh_endepilogue
	retq
	.seh_endproc

	.def	_ZN4core3ptr77drop_in_place$LT$alloc..raw_vec..RawVec$LT$std..ffi..os_str..OsString$GT$$GT$17h4cb848863880959aE;
	.scl	3;
	.type	32;
	.endef
	.section	.text,"xr",one_only,_ZN4core3ptr77drop_in_place$LT$alloc..raw_vec..RawVec$LT$std..ffi..os_str..OsString$GT$$GT$17h4cb848863880959aE,unique,71
	.p2align	4
_ZN4core3ptr77drop_in_place$LT$alloc..raw_vec..RawVec$LT$std..ffi..os_str..OsString$GT$$GT$17h4cb848863880959aE:
.seh_proc _ZN4core3ptr77drop_in_place$LT$alloc..raw_vec..RawVec$LT$std..ffi..os_str..OsString$GT$$GT$17h4cb848863880959aE
	subq	$40, %rsp
	.seh_stackalloc 40
	.seh_endprologue
	callq	_ZN77_$LT$alloc..raw_vec..RawVec$LT$T$C$A$GT$$u20$as$u20$core..ops..drop..Drop$GT$4drop17h2d7bfdbb4a9baf63E
	nop
	.seh_startepilogue
	addq	$40, %rsp
	.seh_endepilogue
	retq
	.seh_endproc

	.def	_ZN4core3ptr86drop_in_place$LT$alloc..vec..into_iter..IntoIter$LT$std..ffi..os_str..OsString$GT$$GT$17h8a3dd6f39cbcf854E;
	.scl	3;
	.type	32;
	.endef
	.section	.text,"xr",one_only,_ZN4core3ptr86drop_in_place$LT$alloc..vec..into_iter..IntoIter$LT$std..ffi..os_str..OsString$GT$$GT$17h8a3dd6f39cbcf854E,unique,72
	.p2align	4
_ZN4core3ptr86drop_in_place$LT$alloc..vec..into_iter..IntoIter$LT$std..ffi..os_str..OsString$GT$$GT$17h8a3dd6f39cbcf854E:
.seh_proc _ZN4core3ptr86drop_in_place$LT$alloc..vec..into_iter..IntoIter$LT$std..ffi..os_str..OsString$GT$$GT$17h8a3dd6f39cbcf854E
	subq	$40, %rsp
	.seh_stackalloc 40
	.seh_endprologue
	callq	_ZN86_$LT$alloc..vec..into_iter..IntoIter$LT$T$C$A$GT$$u20$as$u20$core..ops..drop..Drop$GT$4drop17h106fc4b01720f02fE
	nop
	.seh_startepilogue
	addq	$40, %rsp
	.seh_endepilogue
	retq
	.seh_endproc

	.def	_ZN4core3ptr8non_null16NonNull$LT$T$GT$13new_unchecked18precondition_check17hf03d67c49e9c04a2E;
	.scl	3;
	.type	32;
	.endef
	.section	.text,"xr",one_only,_ZN4core3ptr8non_null16NonNull$LT$T$GT$13new_unchecked18precondition_check17hf03d67c49e9c04a2E,unique,73
	.p2align	4
_ZN4core3ptr8non_null16NonNull$LT$T$GT$13new_unchecked18precondition_check17hf03d67c49e9c04a2E:
.seh_proc _ZN4core3ptr8non_null16NonNull$LT$T$GT$13new_unchecked18precondition_check17hf03d67c49e9c04a2E
	subq	$104, %rsp
	.seh_stackalloc 104
	.seh_endprologue
	movq	%rdx, 32(%rsp)
	cmpq	$0, %rcx
	jne	.LBB72_2
	movq	32(%rsp), %r8
	leaq	anon.aea64e3d4c527d9b67f1a42df9b9b7d7.59(%rip), %rax
	movq	%rax, 88(%rsp)
	movq	$210, 96(%rsp)
	leaq	88(%rsp), %rax
	movq	%rax, 40(%rsp)
	movq	$1, 48(%rsp)
	movq	anon.aea64e3d4c527d9b67f1a42df9b9b7d7.1(%rip), %rcx
	movq	anon.aea64e3d4c527d9b67f1a42df9b9b7d7.1+8(%rip), %rax
	movq	%rcx, 72(%rsp)
	movq	%rax, 80(%rsp)
	movl	$8, %eax
	movq	%rax, 56(%rsp)
	movq	$0, 64(%rsp)
	leaq	40(%rsp), %rcx
	xorl	%edx, %edx
	callq	_ZN4core9panicking18panic_nounwind_fmt17h93b15706b0f16961E
.LBB72_2:
	nop
	.seh_startepilogue
	addq	$104, %rsp
	.seh_endepilogue
	retq
	.seh_endproc

	.def	_ZN4core3ptr8non_null16NonNull$LT$T$GT$20offset_from_unsigned17h0ea1b9eeca63a4adE;
	.scl	3;
	.type	32;
	.endef
	.section	.text,"xr",one_only,_ZN4core3ptr8non_null16NonNull$LT$T$GT$20offset_from_unsigned17h0ea1b9eeca63a4adE,unique,74
	.p2align	4
_ZN4core3ptr8non_null16NonNull$LT$T$GT$20offset_from_unsigned17h0ea1b9eeca63a4adE:
.seh_proc _ZN4core3ptr8non_null16NonNull$LT$T$GT$20offset_from_unsigned17h0ea1b9eeca63a4adE
	subq	$56, %rsp
	.seh_stackalloc 56
	.seh_endprologue
	movq	%rdx, 32(%rsp)
	movq	%rcx, 40(%rsp)
	movq	32(%rsp), %rdx
	movq	40(%rsp), %rcx
	leaq	anon.aea64e3d4c527d9b67f1a42df9b9b7d7.61(%rip), %r8
	callq	_ZN4core3ptr9const_ptr33_$LT$impl$u20$$BP$const$u20$T$GT$20offset_from_unsigned18precondition_check17h7042166cc2f3060cE
	jmp	.LBB73_3
.LBB73_3:
	jmp	.LBB73_4
.LBB73_4:
	movq	32(%rsp), %rcx
	movq	40(%rsp), %rax
	subq	%rcx, %rax
	shrq	$5, %rax
	movq	%rax, 48(%rsp)
	movq	48(%rsp), %rax
	.seh_startepilogue
	addq	$56, %rsp
	.seh_endepilogue
	retq
	.seh_endproc

	.def	_ZN4core3ptr8non_null16NonNull$LT$T$GT$20offset_from_unsigned17h9c1b6a0f212baf5eE;
	.scl	3;
	.type	32;
	.endef
	.section	.text,"xr",one_only,_ZN4core3ptr8non_null16NonNull$LT$T$GT$20offset_from_unsigned17h9c1b6a0f212baf5eE,unique,75
	.p2align	4
_ZN4core3ptr8non_null16NonNull$LT$T$GT$20offset_from_unsigned17h9c1b6a0f212baf5eE:
.seh_proc _ZN4core3ptr8non_null16NonNull$LT$T$GT$20offset_from_unsigned17h9c1b6a0f212baf5eE
	subq	$56, %rsp
	.seh_stackalloc 56
	.seh_endprologue
	movq	%rdx, 32(%rsp)
	movq	%rcx, 40(%rsp)
	movq	32(%rsp), %rdx
	movq	40(%rsp), %rcx
	leaq	anon.aea64e3d4c527d9b67f1a42df9b9b7d7.61(%rip), %r8
	callq	_ZN4core3ptr9const_ptr33_$LT$impl$u20$$BP$const$u20$T$GT$20offset_from_unsigned18precondition_check17h7042166cc2f3060cE
	jmp	.LBB74_3
.LBB74_3:
	jmp	.LBB74_4
.LBB74_4:
	movq	32(%rsp), %rcx
	movq	40(%rsp), %rax
	subq	%rcx, %rax
	shrq	$0, %rax
	movq	%rax, 48(%rsp)
	movq	48(%rsp), %rax
	.seh_startepilogue
	addq	$56, %rsp
	.seh_endepilogue
	retq
	.seh_endproc

	.def	_ZN4core3ptr8non_null16NonNull$LT$T$GT$20offset_from_unsigned17had0c0dec1d51ea98E;
	.scl	3;
	.type	32;
	.endef
	.section	.text,"xr",one_only,_ZN4core3ptr8non_null16NonNull$LT$T$GT$20offset_from_unsigned17had0c0dec1d51ea98E,unique,76
	.p2align	4
_ZN4core3ptr8non_null16NonNull$LT$T$GT$20offset_from_unsigned17had0c0dec1d51ea98E:
.seh_proc _ZN4core3ptr8non_null16NonNull$LT$T$GT$20offset_from_unsigned17had0c0dec1d51ea98E
	subq	$56, %rsp
	.seh_stackalloc 56
	.seh_endprologue
	movq	%rdx, 32(%rsp)
	movq	%rcx, 40(%rsp)
	movq	32(%rsp), %rdx
	movq	40(%rsp), %rcx
	leaq	anon.aea64e3d4c527d9b67f1a42df9b9b7d7.61(%rip), %r8
	callq	_ZN4core3ptr9const_ptr33_$LT$impl$u20$$BP$const$u20$T$GT$20offset_from_unsigned18precondition_check17h7042166cc2f3060cE
	jmp	.LBB75_3
.LBB75_3:
	jmp	.LBB75_4
.LBB75_4:
	movq	32(%rsp), %rcx
	movq	40(%rsp), %rax
	subq	%rcx, %rax
	movl	$24, %ecx
	xorl	%edx, %edx
	divq	%rcx
	movq	%rax, 48(%rsp)
	movq	48(%rsp), %rax
	.seh_startepilogue
	addq	$56, %rsp
	.seh_endepilogue
	retq
	.seh_endproc

	.def	_ZN4core3ptr8non_null16NonNull$LT$T$GT$20offset_from_unsigned17hcfc8ba503a452b41E;
	.scl	3;
	.type	32;
	.endef
	.section	.text,"xr",one_only,_ZN4core3ptr8non_null16NonNull$LT$T$GT$20offset_from_unsigned17hcfc8ba503a452b41E,unique,77
	.p2align	4
_ZN4core3ptr8non_null16NonNull$LT$T$GT$20offset_from_unsigned17hcfc8ba503a452b41E:
.seh_proc _ZN4core3ptr8non_null16NonNull$LT$T$GT$20offset_from_unsigned17hcfc8ba503a452b41E
	subq	$56, %rsp
	.seh_stackalloc 56
	.seh_endprologue
	movq	%rdx, 32(%rsp)
	movq	%rcx, 40(%rsp)
	movq	32(%rsp), %rdx
	movq	40(%rsp), %rcx
	leaq	anon.aea64e3d4c527d9b67f1a42df9b9b7d7.61(%rip), %r8
	callq	_ZN4core3ptr9const_ptr33_$LT$impl$u20$$BP$const$u20$T$GT$20offset_from_unsigned18precondition_check17h7042166cc2f3060cE
	jmp	.LBB76_3
.LBB76_3:
	jmp	.LBB76_4
.LBB76_4:
	movq	32(%rsp), %rcx
	movq	40(%rsp), %rax
	subq	%rcx, %rax
	shrq	$4, %rax
	movq	%rax, 48(%rsp)
	movq	48(%rsp), %rax
	.seh_startepilogue
	addq	$56, %rsp
	.seh_endepilogue
	retq
	.seh_endproc

	.def	_ZN4core3ptr93drop_in_place$LT$dyn$u20$core..error..Error$u2b$core..marker..Sync$u2b$core..marker..Send$GT$17hcd39bd9e16658ff5E;
	.scl	3;
	.type	32;
	.endef
	.section	.text,"xr",one_only,_ZN4core3ptr93drop_in_place$LT$dyn$u20$core..error..Error$u2b$core..marker..Sync$u2b$core..marker..Send$GT$17hcd39bd9e16658ff5E,unique,78
	.p2align	4
_ZN4core3ptr93drop_in_place$LT$dyn$u20$core..error..Error$u2b$core..marker..Sync$u2b$core..marker..Send$GT$17hcd39bd9e16658ff5E:
.seh_proc _ZN4core3ptr93drop_in_place$LT$dyn$u20$core..error..Error$u2b$core..marker..Sync$u2b$core..marker..Send$GT$17hcd39bd9e16658ff5E
	subq	$56, %rsp
	.seh_stackalloc 56
	.seh_endprologue
	movq	%rcx, 40(%rsp)
	movq	(%rdx), %rax
	movq	%rax, 48(%rsp)
	cmpq	$0, %rax
	je	.LBB77_2
	movq	48(%rsp), %rax
	movq	40(%rsp), %rcx
	callq	*%rax
.LBB77_2:
	nop
	.seh_startepilogue
	addq	$56, %rsp
	.seh_endepilogue
	retq
	.seh_endproc

	.def	_ZN4core3ptr9const_ptr33_$LT$impl$u20$$BP$const$u20$T$GT$20offset_from_unsigned18precondition_check17h7042166cc2f3060cE;
	.scl	3;
	.type	32;
	.endef
	.section	.text,"xr",one_only,_ZN4core3ptr9const_ptr33_$LT$impl$u20$$BP$const$u20$T$GT$20offset_from_unsigned18precondition_check17h7042166cc2f3060cE,unique,79
	.p2align	4
_ZN4core3ptr9const_ptr33_$LT$impl$u20$$BP$const$u20$T$GT$20offset_from_unsigned18precondition_check17h7042166cc2f3060cE:
.seh_proc _ZN4core3ptr9const_ptr33_$LT$impl$u20$$BP$const$u20$T$GT$20offset_from_unsigned18precondition_check17h7042166cc2f3060cE
	subq	$104, %rsp
	.seh_stackalloc 104
	.seh_endprologue
	movq	%r8, 32(%rsp)
	cmpq	%rdx, %rcx
	jae	.LBB78_2
	movq	32(%rsp), %r8
	leaq	anon.aea64e3d4c527d9b67f1a42df9b9b7d7.63(%rip), %rax
	movq	%rax, 88(%rsp)
	movq	$201, 96(%rsp)
	leaq	88(%rsp), %rax
	movq	%rax, 40(%rsp)
	movq	$1, 48(%rsp)
	movq	anon.aea64e3d4c527d9b67f1a42df9b9b7d7.1(%rip), %rcx
	movq	anon.aea64e3d4c527d9b67f1a42df9b9b7d7.1+8(%rip), %rax
	movq	%rcx, 72(%rsp)
	movq	%rax, 80(%rsp)
	movl	$8, %eax
	movq	%rax, 56(%rsp)
	movq	$0, 64(%rsp)
	leaq	40(%rsp), %rcx
	xorl	%edx, %edx
	callq	_ZN4core9panicking18panic_nounwind_fmt17h93b15706b0f16961E
.LBB78_2:
	nop
	.seh_startepilogue
	addq	$104, %rsp
	.seh_endepilogue
	retq
	.seh_endproc

	.def	_ZN4core3str11validations15next_code_point17h0dc39fac342735f4E;
	.scl	3;
	.type	32;
	.endef
	.section	.text,"xr",one_only,_ZN4core3str11validations15next_code_point17h0dc39fac342735f4E,unique,80
	.p2align	4
_ZN4core3str11validations15next_code_point17h0dc39fac342735f4E:
.seh_proc _ZN4core3str11validations15next_code_point17h0dc39fac342735f4E
	subq	$120, %rsp
	.seh_stackalloc 120
	.seh_endprologue
	movq	%rcx, 56(%rsp)
	callq	_ZN91_$LT$core..slice..iter..Iter$LT$T$GT$$u20$as$u20$core..iter..traits..iterator..Iterator$GT$4next17h6c88ac6f145bd954E
	movq	%rax, 80(%rsp)
	movq	80(%rsp), %rdx
	movl	$1, %eax
	xorl	%ecx, %ecx
	cmpq	$0, %rdx
	cmoveq	%rcx, %rax
	testq	$1, %rax
	je	.LBB79_2
	movq	80(%rsp), %rax
	movq	%rax, 72(%rsp)
	movq	72(%rsp), %rax
	movb	(%rax), %al
	movb	%al, 55(%rsp)
	cmpb	$-128, %al
	jb	.LBB79_5
	jmp	.LBB79_4
.LBB79_2:
	movl	anon.aea64e3d4c527d9b67f1a42df9b9b7d7.64(%rip), %ecx
	movl	anon.aea64e3d4c527d9b67f1a42df9b9b7d7.64+4(%rip), %eax
	movl	%ecx, 64(%rsp)
	movl	%eax, 68(%rsp)
.LBB79_3:
	movl	64(%rsp), %eax
	movl	68(%rsp), %edx
	.seh_startepilogue
	addq	$120, %rsp
	.seh_endepilogue
	retq
.LBB79_4:
	movq	56(%rsp), %rcx
	movb	55(%rsp), %al
	andb	$31, %al
	movzbl	%al, %eax
	movl	%eax, 48(%rsp)
	callq	_ZN91_$LT$core..slice..iter..Iter$LT$T$GT$$u20$as$u20$core..iter..traits..iterator..Iterator$GT$4next17h6c88ac6f145bd954E
	movq	%rax, 88(%rsp)
	movq	88(%rsp), %rdx
	movl	$1, %eax
	xorl	%ecx, %ecx
	cmpq	$0, %rdx
	cmoveq	%rcx, %rax
	testq	$1, %rax
	jne	.LBB79_6
	jmp	.LBB79_7
.LBB79_5:
	movb	55(%rsp), %al
	movzbl	%al, %eax
	movl	%eax, 68(%rsp)
	movl	$1, 64(%rsp)
	jmp	.LBB79_3
.LBB79_6:
	movb	55(%rsp), %al
	movl	48(%rsp), %ecx
	movq	88(%rsp), %rdx
	movb	(%rdx), %dl
	movb	%dl, 47(%rsp)
	shll	$6, %ecx
	andb	$63, %dl
	movzbl	%dl, %edx
	orl	%edx, %ecx
	movl	%ecx, 100(%rsp)
	cmpb	$-32, %al
	jae	.LBB79_10
	jmp	.LBB79_9
.LBB79_7:
	leaq	anon.aea64e3d4c527d9b67f1a42df9b9b7d7.66(%rip), %rcx
	callq	_ZN4core4hint21unreachable_unchecked18precondition_check17hf7764ed7709c938bE
.LBB79_8:
	ud2
.LBB79_9:
	movl	100(%rsp), %eax
	movl	%eax, 68(%rsp)
	movl	$1, 64(%rsp)
	jmp	.LBB79_3
.LBB79_10:
	movq	56(%rsp), %rcx
	callq	_ZN91_$LT$core..slice..iter..Iter$LT$T$GT$$u20$as$u20$core..iter..traits..iterator..Iterator$GT$4next17h6c88ac6f145bd954E
	movq	%rax, 104(%rsp)
	movq	104(%rsp), %rdx
	movl	$1, %eax
	xorl	%ecx, %ecx
	cmpq	$0, %rdx
	cmoveq	%rcx, %rax
	testq	$1, %rax
	je	.LBB79_12
	movb	55(%rsp), %al
	movl	48(%rsp), %ecx
	movb	47(%rsp), %dl
	movq	104(%rsp), %r8
	movb	(%r8), %r8b
	andb	$63, %dl
	movzbl	%dl, %edx
	shll	$6, %edx
	andb	$63, %r8b
	movzbl	%r8b, %r8d
	orl	%r8d, %edx
	movl	%edx, 40(%rsp)
	shll	$12, %ecx
	orl	%edx, %ecx
	movl	%ecx, 100(%rsp)
	cmpb	$-16, %al
	jae	.LBB79_14
	jmp	.LBB79_13
.LBB79_12:
	leaq	anon.aea64e3d4c527d9b67f1a42df9b9b7d7.67(%rip), %rcx
	callq	_ZN4core4hint21unreachable_unchecked18precondition_check17hf7764ed7709c938bE
	jmp	.LBB79_8
.LBB79_13:
	jmp	.LBB79_9
.LBB79_14:
	movq	56(%rsp), %rcx
	callq	_ZN91_$LT$core..slice..iter..Iter$LT$T$GT$$u20$as$u20$core..iter..traits..iterator..Iterator$GT$4next17h6c88ac6f145bd954E
	movq	%rax, 112(%rsp)
	movq	112(%rsp), %rdx
	movl	$1, %eax
	xorl	%ecx, %ecx
	cmpq	$0, %rdx
	cmoveq	%rcx, %rax
	testq	$1, %rax
	je	.LBB79_16
	movl	40(%rsp), %ecx
	movl	48(%rsp), %eax
	movq	112(%rsp), %rdx
	movb	(%rdx), %dl
	andl	$7, %eax
	shll	$18, %eax
	shll	$6, %ecx
	andb	$63, %dl
	movzbl	%dl, %edx
	orl	%edx, %ecx
	orl	%ecx, %eax
	movl	%eax, 100(%rsp)
	jmp	.LBB79_13
.LBB79_16:
	leaq	anon.aea64e3d4c527d9b67f1a42df9b9b7d7.68(%rip), %rcx
	callq	_ZN4core4hint21unreachable_unchecked18precondition_check17hf7764ed7709c938bE
	jmp	.LBB79_8
	.seh_endproc

	.def	_ZN4core3str21_$LT$impl$u20$str$GT$16split_whitespace17hf8df23b6e90d4b31E;
	.scl	3;
	.type	32;
	.endef
	.section	.text,"xr",one_only,_ZN4core3str21_$LT$impl$u20$str$GT$16split_whitespace17hf8df23b6e90d4b31E,unique,81
	.p2align	4
_ZN4core3str21_$LT$impl$u20$str$GT$16split_whitespace17hf8df23b6e90d4b31E:
.seh_proc _ZN4core3str21_$LT$impl$u20$str$GT$16split_whitespace17hf8df23b6e90d4b31E
	subq	$328, %rsp
	.seh_stackalloc 328
	.seh_endprologue
	movq	%r8, 32(%rsp)
	movq	%rcx, 40(%rsp)
	movq	%rcx, 48(%rsp)
	leaq	288(%rsp), %rcx
	callq	_ZN95_$LT$core..str..pattern..MultiCharEqPattern$LT$C$GT$$u20$as$u20$core..str..pattern..Pattern$GT$13into_searcher17h5fccd4f52950ea63E
	leaq	248(%rsp), %rcx
	leaq	288(%rsp), %rdx
	movl	$40, %r8d
	callq	memcpy
	movq	32(%rsp), %r8
	movq	$0, 184(%rsp)
	movq	%r8, 192(%rsp)
	leaq	184(%rsp), %rcx
	addq	$16, %rcx
	leaq	248(%rsp), %rdx
	movl	$40, %r8d
	callq	memcpy
	movb	$1, 240(%rsp)
	movb	$0, 241(%rsp)
	leaq	120(%rsp), %rcx
	leaq	184(%rsp), %rdx
	movl	$64, %r8d
	callq	memcpy
	leaq	56(%rsp), %rcx
	leaq	120(%rsp), %rdx
	movl	$64, %r8d
	callq	memcpy
	movq	40(%rsp), %rcx
	leaq	56(%rsp), %rdx
	movl	$64, %r8d
	callq	memcpy
	movq	48(%rsp), %rax
	.seh_startepilogue
	addq	$328, %rsp
	.seh_endepilogue
	retq
	.seh_endproc

	.def	_ZN4core3str21_$LT$impl$u20$str$GT$5chars17h727185f0a3c47ad6E;
	.scl	3;
	.type	32;
	.endef
	.section	.text,"xr",one_only,_ZN4core3str21_$LT$impl$u20$str$GT$5chars17h727185f0a3c47ad6E,unique,82
	.p2align	4
_ZN4core3str21_$LT$impl$u20$str$GT$5chars17h727185f0a3c47ad6E:
.seh_proc _ZN4core3str21_$LT$impl$u20$str$GT$5chars17h727185f0a3c47ad6E
	pushq	%rax
	.seh_stackalloc 8
	.seh_endprologue
	movq	%rdx, (%rsp)
	movq	%rcx, %rax
	movq	(%rsp), %rcx
	movq	%rax, %rdx
	addq	%rcx, %rdx
	.seh_startepilogue
	popq	%rcx
	.seh_endepilogue
	retq
	.seh_endproc

	.def	_ZN4core3str21_$LT$impl$u20$str$GT$5split17h03366d7c9ac24d36E;
	.scl	3;
	.type	32;
	.endef
	.section	.text,"xr",one_only,_ZN4core3str21_$LT$impl$u20$str$GT$5split17h03366d7c9ac24d36E,unique,83
	.p2align	4
_ZN4core3str21_$LT$impl$u20$str$GT$5split17h03366d7c9ac24d36E:
.seh_proc _ZN4core3str21_$LT$impl$u20$str$GT$5split17h03366d7c9ac24d36E
	subq	$312, %rsp
	.seh_stackalloc 312
	.seh_endprologue
	movq	%r9, 48(%rsp)
	movq	%r8, %rax
	movq	%rax, 56(%rsp)
	movq	%rdx, %r9
	movq	48(%rsp), %rdx
	movq	%rcx, 64(%rsp)
	movq	%rcx, 72(%rsp)
	movq	352(%rsp), %r8
	leaq	208(%rsp), %rcx
	movq	%rax, 32(%rsp)
	callq	_ZN55_$LT$$RF$str$u20$as$u20$core..str..pattern..Pattern$GT$13into_searcher17h4199998f7f1476f0E
	movq	56(%rsp), %r8
	movq	$0, 184(%rsp)
	movq	%r8, 192(%rsp)
	leaq	80(%rsp), %rcx
	leaq	208(%rsp), %rdx
	movl	$104, %r8d
	callq	memcpy
	movq	64(%rsp), %rcx
	movb	$1, 200(%rsp)
	movb	$0, 201(%rsp)
	leaq	80(%rsp), %rdx
	movl	$128, %r8d
	callq	memcpy
	movq	72(%rsp), %rax
	.seh_startepilogue
	addq	$312, %rsp
	.seh_endepilogue
	retq
	.seh_endproc

	.def	_ZN4core3str4iter22SplitInternal$LT$P$GT$4next17ha1344af25c4e0870E;
	.scl	3;
	.type	32;
	.endef
	.section	.text,"xr",one_only,_ZN4core3str4iter22SplitInternal$LT$P$GT$4next17ha1344af25c4e0870E,unique,84
	.p2align	4
_ZN4core3str4iter22SplitInternal$LT$P$GT$4next17ha1344af25c4e0870E:
.seh_proc _ZN4core3str4iter22SplitInternal$LT$P$GT$4next17ha1344af25c4e0870E
	subq	$120, %rsp
	.seh_stackalloc 120
	.seh_endprologue
	movq	%rcx, 72(%rsp)
	testb	$1, 121(%rcx)
	jne	.LBB83_2
	movq	72(%rsp), %rcx
	callq	_ZN80_$LT$core..str..pattern..StrSearcher$u20$as$u20$core..str..pattern..Searcher$GT$8haystack17ha346676dbf8f9058E
	movq	%rax, 56(%rsp)
	movq	%rdx, %rax
	movq	72(%rsp), %rdx
	movq	%rax, 64(%rsp)
	leaq	96(%rsp), %rcx
	callq	_ZN80_$LT$core..str..pattern..StrSearcher$u20$as$u20$core..str..pattern..Searcher$GT$10next_match17hca62423b64699e76E
	testq	$1, 96(%rsp)
	jne	.LBB83_3
	jmp	.LBB83_4
.LBB83_2:
	movq	anon.aea64e3d4c527d9b67f1a42df9b9b7d7.1(%rip), %rcx
	movq	anon.aea64e3d4c527d9b67f1a42df9b9b7d7.1+8(%rip), %rax
	movq	%rcx, 80(%rsp)
	movq	%rax, 88(%rsp)
	jmp	.LBB83_8
.LBB83_3:
	movq	72(%rsp), %rax
	movq	104(%rsp), %rcx
	movq	%rcx, 32(%rsp)
	movq	112(%rsp), %rcx
	movq	%rcx, 40(%rsp)
	movq	104(%rax), %rax
	movq	%rax, 48(%rsp)
	jmp	.LBB83_6
.LBB83_4:
	movq	72(%rsp), %rcx
	callq	_ZN4core3str4iter22SplitInternal$LT$P$GT$7get_end17hcce6a870b9c93451E
	movq	%rax, 80(%rsp)
	movq	%rdx, 88(%rsp)
.LBB83_5:
	jmp	.LBB83_8
.LBB83_6:
	movq	64(%rsp), %r8
	movq	32(%rsp), %rdx
	movq	48(%rsp), %rcx
	leaq	anon.aea64e3d4c527d9b67f1a42df9b9b7d7.70(%rip), %r9
	callq	_ZN4core3str6traits108_$LT$impl$u20$core..slice..index..SliceIndex$LT$str$GT$$u20$for$u20$core..ops..range..Range$LT$usize$GT$$GT$13get_unchecked18precondition_check17h5bf21b864595db5dE
	movq	72(%rsp), %rdx
	movq	40(%rsp), %r8
	movq	48(%rsp), %r9
	movq	56(%rsp), %rcx
	movq	32(%rsp), %rax
	subq	%r9, %rax
	addq	%r9, %rcx
	movq	%r8, 104(%rdx)
	movq	%rcx, 80(%rsp)
	movq	%rax, 88(%rsp)
	jmp	.LBB83_5
.LBB83_8:
	movq	80(%rsp), %rax
	movq	88(%rsp), %rdx
	.seh_startepilogue
	addq	$120, %rsp
	.seh_endepilogue
	retq
	.seh_endproc

	.def	_ZN4core3str4iter22SplitInternal$LT$P$GT$4next17ha943ba0de0fbc8f8E;
	.scl	3;
	.type	32;
	.endef
	.section	.text,"xr",one_only,_ZN4core3str4iter22SplitInternal$LT$P$GT$4next17ha943ba0de0fbc8f8E,unique,85
	.p2align	4
_ZN4core3str4iter22SplitInternal$LT$P$GT$4next17ha943ba0de0fbc8f8E:
.seh_proc _ZN4core3str4iter22SplitInternal$LT$P$GT$4next17ha943ba0de0fbc8f8E
	subq	$120, %rsp
	.seh_stackalloc 120
	.seh_endprologue
	movq	%rcx, 72(%rsp)
	testb	$1, 57(%rcx)
	jne	.LBB84_2
	movq	72(%rsp), %rcx
	addq	$16, %rcx
	callq	_ZN99_$LT$core..str..pattern..CharPredicateSearcher$LT$F$GT$$u20$as$u20$core..str..pattern..Searcher$GT$8haystack17hf0998d2fe8332b97E
	movq	%rax, 56(%rsp)
	movq	%rdx, %rax
	movq	72(%rsp), %rdx
	movq	%rax, 64(%rsp)
	addq	$16, %rdx
	leaq	96(%rsp), %rcx
	callq	_ZN99_$LT$core..str..pattern..CharPredicateSearcher$LT$F$GT$$u20$as$u20$core..str..pattern..Searcher$GT$10next_match17h76c813bf407def5aE
	testq	$1, 96(%rsp)
	jne	.LBB84_3
	jmp	.LBB84_4
.LBB84_2:
	movq	anon.aea64e3d4c527d9b67f1a42df9b9b7d7.1(%rip), %rcx
	movq	anon.aea64e3d4c527d9b67f1a42df9b9b7d7.1+8(%rip), %rax
	movq	%rcx, 80(%rsp)
	movq	%rax, 88(%rsp)
	jmp	.LBB84_8
.LBB84_3:
	movq	72(%rsp), %rax
	movq	104(%rsp), %rcx
	movq	%rcx, 32(%rsp)
	movq	112(%rsp), %rcx
	movq	%rcx, 40(%rsp)
	movq	(%rax), %rax
	movq	%rax, 48(%rsp)
	jmp	.LBB84_6
.LBB84_4:
	movq	72(%rsp), %rcx
	callq	_ZN4core3str4iter22SplitInternal$LT$P$GT$7get_end17h3976380666cbcdf9E
	movq	%rax, 80(%rsp)
	movq	%rdx, 88(%rsp)
.LBB84_5:
	jmp	.LBB84_8
.LBB84_6:
	movq	64(%rsp), %r8
	movq	32(%rsp), %rdx
	movq	48(%rsp), %rcx
	leaq	anon.aea64e3d4c527d9b67f1a42df9b9b7d7.70(%rip), %r9
	callq	_ZN4core3str6traits108_$LT$impl$u20$core..slice..index..SliceIndex$LT$str$GT$$u20$for$u20$core..ops..range..Range$LT$usize$GT$$GT$13get_unchecked18precondition_check17h5bf21b864595db5dE
	movq	72(%rsp), %rdx
	movq	40(%rsp), %r8
	movq	48(%rsp), %r9
	movq	56(%rsp), %rcx
	movq	32(%rsp), %rax
	subq	%r9, %rax
	addq	%r9, %rcx
	movq	%r8, (%rdx)
	movq	%rcx, 80(%rsp)
	movq	%rax, 88(%rsp)
	jmp	.LBB84_5
.LBB84_8:
	movq	80(%rsp), %rax
	movq	88(%rsp), %rdx
	.seh_startepilogue
	addq	$120, %rsp
	.seh_endepilogue
	retq
	.seh_endproc

	.def	_ZN4core3str4iter22SplitInternal$LT$P$GT$7get_end17h3976380666cbcdf9E;
	.scl	3;
	.type	32;
	.endef
	.section	.text,"xr",one_only,_ZN4core3str4iter22SplitInternal$LT$P$GT$7get_end17h3976380666cbcdf9E,unique,86
	.p2align	4
_ZN4core3str4iter22SplitInternal$LT$P$GT$7get_end17h3976380666cbcdf9E:
.seh_proc _ZN4core3str4iter22SplitInternal$LT$P$GT$7get_end17h3976380666cbcdf9E
	subq	$88, %rsp
	.seh_stackalloc 88
	.seh_endprologue
	movq	%rcx, 64(%rsp)
	testb	$1, 57(%rcx)
	jne	.LBB85_2
	movq	64(%rsp), %rax
	movb	$1, 57(%rax)
	testb	$1, 56(%rax)
	jne	.LBB85_4
	jmp	.LBB85_3
.LBB85_2:
	movq	anon.aea64e3d4c527d9b67f1a42df9b9b7d7.1(%rip), %rcx
	movq	anon.aea64e3d4c527d9b67f1a42df9b9b7d7.1+8(%rip), %rax
	movq	%rcx, 72(%rsp)
	movq	%rax, 80(%rsp)
	jmp	.LBB85_9
.LBB85_3:
	movq	64(%rsp), %rcx
	movq	8(%rcx), %rax
	subq	(%rcx), %rax
	cmpq	$0, %rax
	ja	.LBB85_6
	jmp	.LBB85_5
.LBB85_4:
	movq	64(%rsp), %rcx
	addq	$16, %rcx
	callq	_ZN99_$LT$core..str..pattern..CharPredicateSearcher$LT$F$GT$$u20$as$u20$core..str..pattern..Searcher$GT$8haystack17hf0998d2fe8332b97E
	movq	%rax, %rcx
	movq	64(%rsp), %rax
	movq	%rcx, 32(%rsp)
	movq	%rdx, 40(%rsp)
	movq	(%rax), %rcx
	movq	%rcx, 48(%rsp)
	movq	8(%rax), %rax
	movq	%rax, 56(%rsp)
	jmp	.LBB85_7
.LBB85_5:
	jmp	.LBB85_2
.LBB85_6:
	jmp	.LBB85_4
.LBB85_7:
	movq	40(%rsp), %r8
	movq	56(%rsp), %rdx
	movq	48(%rsp), %rcx
	leaq	anon.aea64e3d4c527d9b67f1a42df9b9b7d7.70(%rip), %r9
	callq	_ZN4core3str6traits108_$LT$impl$u20$core..slice..index..SliceIndex$LT$str$GT$$u20$for$u20$core..ops..range..Range$LT$usize$GT$$GT$13get_unchecked18precondition_check17h5bf21b864595db5dE
	movq	48(%rsp), %rdx
	movq	32(%rsp), %rcx
	movq	56(%rsp), %rax
	subq	%rdx, %rax
	addq	%rdx, %rcx
	movq	%rcx, 72(%rsp)
	movq	%rax, 80(%rsp)
.LBB85_9:
	movq	72(%rsp), %rax
	movq	80(%rsp), %rdx
	.seh_startepilogue
	addq	$88, %rsp
	.seh_endepilogue
	retq
	.seh_endproc

	.def	_ZN4core3str4iter22SplitInternal$LT$P$GT$7get_end17hcce6a870b9c93451E;
	.scl	3;
	.type	32;
	.endef
	.section	.text,"xr",one_only,_ZN4core3str4iter22SplitInternal$LT$P$GT$7get_end17hcce6a870b9c93451E,unique,87
	.p2align	4
_ZN4core3str4iter22SplitInternal$LT$P$GT$7get_end17hcce6a870b9c93451E:
.seh_proc _ZN4core3str4iter22SplitInternal$LT$P$GT$7get_end17hcce6a870b9c93451E
	subq	$88, %rsp
	.seh_stackalloc 88
	.seh_endprologue
	movq	%rcx, 64(%rsp)
	testb	$1, 121(%rcx)
	jne	.LBB86_2
	movq	64(%rsp), %rax
	movb	$1, 121(%rax)
	testb	$1, 120(%rax)
	jne	.LBB86_4
	jmp	.LBB86_3
.LBB86_2:
	movq	anon.aea64e3d4c527d9b67f1a42df9b9b7d7.1(%rip), %rcx
	movq	anon.aea64e3d4c527d9b67f1a42df9b9b7d7.1+8(%rip), %rax
	movq	%rcx, 72(%rsp)
	movq	%rax, 80(%rsp)
	jmp	.LBB86_9
.LBB86_3:
	movq	64(%rsp), %rcx
	movq	112(%rcx), %rax
	subq	104(%rcx), %rax
	cmpq	$0, %rax
	ja	.LBB86_6
	jmp	.LBB86_5
.LBB86_4:
	movq	64(%rsp), %rcx
	callq	_ZN80_$LT$core..str..pattern..StrSearcher$u20$as$u20$core..str..pattern..Searcher$GT$8haystack17ha346676dbf8f9058E
	movq	%rax, %rcx
	movq	64(%rsp), %rax
	movq	%rcx, 32(%rsp)
	movq	%rdx, 40(%rsp)
	movq	104(%rax), %rcx
	movq	%rcx, 48(%rsp)
	movq	112(%rax), %rax
	movq	%rax, 56(%rsp)
	jmp	.LBB86_7
.LBB86_5:
	jmp	.LBB86_2
.LBB86_6:
	jmp	.LBB86_4
.LBB86_7:
	movq	40(%rsp), %r8
	movq	56(%rsp), %rdx
	movq	48(%rsp), %rcx
	leaq	anon.aea64e3d4c527d9b67f1a42df9b9b7d7.70(%rip), %r9
	callq	_ZN4core3str6traits108_$LT$impl$u20$core..slice..index..SliceIndex$LT$str$GT$$u20$for$u20$core..ops..range..Range$LT$usize$GT$$GT$13get_unchecked18precondition_check17h5bf21b864595db5dE
	movq	48(%rsp), %rdx
	movq	32(%rsp), %rcx
	movq	56(%rsp), %rax
	subq	%rdx, %rax
	addq	%rdx, %rcx
	movq	%rcx, 72(%rsp)
	movq	%rax, 80(%rsp)
.LBB86_9:
	movq	72(%rsp), %rax
	movq	80(%rsp), %rdx
	.seh_startepilogue
	addq	$88, %rsp
	.seh_endepilogue
	retq
	.seh_endproc

	.def	_ZN4core3str6traits108_$LT$impl$u20$core..slice..index..SliceIndex$LT$str$GT$$u20$for$u20$core..ops..range..Range$LT$usize$GT$$GT$13get_unchecked18precondition_check17h5bf21b864595db5dE;
	.scl	3;
	.type	32;
	.endef
	.section	.text,"xr",one_only,_ZN4core3str6traits108_$LT$impl$u20$core..slice..index..SliceIndex$LT$str$GT$$u20$for$u20$core..ops..range..Range$LT$usize$GT$$GT$13get_unchecked18precondition_check17h5bf21b864595db5dE,unique,88
	.p2align	4
_ZN4core3str6traits108_$LT$impl$u20$core..slice..index..SliceIndex$LT$str$GT$$u20$for$u20$core..ops..range..Range$LT$usize$GT$$GT$13get_unchecked18precondition_check17h5bf21b864595db5dE:
.seh_proc _ZN4core3str6traits108_$LT$impl$u20$core..slice..index..SliceIndex$LT$str$GT$$u20$for$u20$core..ops..range..Range$LT$usize$GT$$GT$13get_unchecked18precondition_check17h5bf21b864595db5dE
	subq	$120, %rsp
	.seh_stackalloc 120
	.seh_endprologue
	movq	%r9, 32(%rsp)
	movq	%r8, 40(%rsp)
	movq	%rdx, 48(%rsp)
	cmpq	%rcx, %rdx
	jae	.LBB87_2
.LBB87_1:
	movq	32(%rsp), %r8
	leaq	anon.aea64e3d4c527d9b67f1a42df9b9b7d7.71(%rip), %rax
	movq	%rax, 104(%rsp)
	movq	$219, 112(%rsp)
	leaq	104(%rsp), %rax
	movq	%rax, 56(%rsp)
	movq	$1, 64(%rsp)
	movq	anon.aea64e3d4c527d9b67f1a42df9b9b7d7.1(%rip), %rcx
	movq	anon.aea64e3d4c527d9b67f1a42df9b9b7d7.1+8(%rip), %rax
	movq	%rcx, 88(%rsp)
	movq	%rax, 96(%rsp)
	movl	$8, %eax
	movq	%rax, 72(%rsp)
	movq	$0, 80(%rsp)
	leaq	56(%rsp), %rcx
	xorl	%edx, %edx
	callq	_ZN4core9panicking18panic_nounwind_fmt17h93b15706b0f16961E
.LBB87_2:
	movq	48(%rsp), %rax
	movq	40(%rsp), %rcx
	cmpq	%rcx, %rax
	ja	.LBB87_1
	.seh_startepilogue
	addq	$120, %rsp
	.seh_endepilogue
	retq
	.seh_endproc

	.def	_ZN4core3str6traits112_$LT$impl$u20$core..slice..index..SliceIndex$LT$str$GT$$u20$for$u20$core..ops..range..RangeFrom$LT$usize$GT$$GT$3get17hc6a0da9327561296E;
	.scl	3;
	.type	32;
	.endef
	.section	.text,"xr",one_only,_ZN4core3str6traits112_$LT$impl$u20$core..slice..index..SliceIndex$LT$str$GT$$u20$for$u20$core..ops..range..RangeFrom$LT$usize$GT$$GT$3get17hc6a0da9327561296E,unique,89
	.p2align	4
_ZN4core3str6traits112_$LT$impl$u20$core..slice..index..SliceIndex$LT$str$GT$$u20$for$u20$core..ops..range..RangeFrom$LT$usize$GT$$GT$3get17hc6a0da9327561296E:
.seh_proc _ZN4core3str6traits112_$LT$impl$u20$core..slice..index..SliceIndex$LT$str$GT$$u20$for$u20$core..ops..range..RangeFrom$LT$usize$GT$$GT$3get17hc6a0da9327561296E
	subq	$88, %rsp
	.seh_stackalloc 88
	.seh_endprologue
	movq	%r8, 40(%rsp)
	movq	%rdx, 48(%rsp)
	movq	%rcx, 56(%rsp)
	cmpq	$0, %rcx
	jne	.LBB88_2
	jmp	.LBB88_3
.LBB88_2:
	movq	56(%rsp), %rax
	movq	40(%rsp), %rcx
	cmpq	%rcx, %rax
	jae	.LBB88_5
	jmp	.LBB88_4
.LBB88_3:
	jmp	.LBB88_11
.LBB88_4:
	movq	56(%rsp), %rax
	movq	40(%rsp), %rcx
	cmpq	%rcx, %rax
	jb	.LBB88_6
	jmp	.LBB88_7
.LBB88_5:
	movq	56(%rsp), %rax
	movq	40(%rsp), %rcx
	cmpq	%rcx, %rax
	sete	%al
	andb	$1, %al
	movb	%al, 87(%rsp)
	jmp	.LBB88_8
.LBB88_6:
	movq	48(%rsp), %rax
	movq	56(%rsp), %rcx
	cmpb	$-64, (%rax,%rcx)
	setge	%al
	andb	$1, %al
	movb	%al, 87(%rsp)
	jmp	.LBB88_8
.LBB88_7:
	movq	40(%rsp), %rdx
	movq	56(%rsp), %rcx
	leaq	anon.aea64e3d4c527d9b67f1a42df9b9b7d7.72(%rip), %r8
	callq	_ZN4core9panicking18panic_bounds_check17h34f2c02fdf34faaeE
.LBB88_8:
	testb	$1, 87(%rsp)
	jne	.LBB88_3
	movq	anon.aea64e3d4c527d9b67f1a42df9b9b7d7.1(%rip), %rcx
	movq	anon.aea64e3d4c527d9b67f1a42df9b9b7d7.1+8(%rip), %rax
	movq	%rcx, 64(%rsp)
	movq	%rax, 72(%rsp)
.LBB88_10:
	movq	64(%rsp), %rax
	movq	72(%rsp), %rdx
	.seh_startepilogue
	addq	$88, %rsp
	.seh_endepilogue
	retq
.LBB88_11:
	movq	40(%rsp), %r8
	movq	56(%rsp), %rcx
	leaq	anon.aea64e3d4c527d9b67f1a42df9b9b7d7.74(%rip), %r9
	movq	%r8, %rdx
	callq	_ZN4core3str6traits108_$LT$impl$u20$core..slice..index..SliceIndex$LT$str$GT$$u20$for$u20$core..ops..range..Range$LT$usize$GT$$GT$13get_unchecked18precondition_check17h5bf21b864595db5dE
	movq	56(%rsp), %rdx
	movq	48(%rsp), %rcx
	movq	40(%rsp), %rax
	subq	%rdx, %rax
	addq	%rdx, %rcx
	movq	%rcx, 64(%rsp)
	movq	%rax, 72(%rsp)
	jmp	.LBB88_10
	.seh_endproc

	.def	_ZN4core3str6traits54_$LT$impl$u20$core..cmp..PartialEq$u20$for$u20$str$GT$2eq17h3b286854ac1152c8E;
	.scl	3;
	.type	32;
	.endef
	.section	.text,"xr",one_only,_ZN4core3str6traits54_$LT$impl$u20$core..cmp..PartialEq$u20$for$u20$str$GT$2eq17h3b286854ac1152c8E,unique,90
	.p2align	4
_ZN4core3str6traits54_$LT$impl$u20$core..cmp..PartialEq$u20$for$u20$str$GT$2eq17h3b286854ac1152c8E:
.seh_proc _ZN4core3str6traits54_$LT$impl$u20$core..cmp..PartialEq$u20$for$u20$str$GT$2eq17h3b286854ac1152c8E
	subq	$88, %rsp
	.seh_stackalloc 88
	.seh_endprologue
	movq	%r8, 40(%rsp)
	movq	%rdx, 48(%rsp)
	movq	%rcx, 56(%rsp)
	cmpq	%r9, %rdx
	jne	.LBB89_2
	movq	40(%rsp), %rdx
	movq	56(%rsp), %rcx
	movq	48(%rsp), %rax
	shlq	$0, %rax
	movq	%rax, 72(%rsp)
	movq	72(%rsp), %r8
	callq	memcmp
	movl	%eax, 84(%rsp)
	cmpl	$0, 84(%rsp)
	sete	%al
	andb	$1, %al
	movb	%al, 71(%rsp)
	jmp	.LBB89_3
.LBB89_2:
	movb	$0, 71(%rsp)
.LBB89_3:
	movb	71(%rsp), %al
	andb	$1, %al
	.seh_startepilogue
	addq	$88, %rsp
	.seh_endepilogue
	retq
	.seh_endproc

	.def	_ZN4core3str6traits99_$LT$impl$u20$core..slice..index..SliceIndex$LT$str$GT$$u20$for$u20$core..ops..range..RangeFull$GT$5index17hb1406dca422fcf43E;
	.scl	3;
	.type	32;
	.endef
	.section	.text,"xr",one_only,_ZN4core3str6traits99_$LT$impl$u20$core..slice..index..SliceIndex$LT$str$GT$$u20$for$u20$core..ops..range..RangeFull$GT$5index17hb1406dca422fcf43E,unique,91
	.p2align	4
_ZN4core3str6traits99_$LT$impl$u20$core..slice..index..SliceIndex$LT$str$GT$$u20$for$u20$core..ops..range..RangeFull$GT$5index17hb1406dca422fcf43E:
	movq	%rcx, %rax
	retq

	.def	_ZN4core3str74_$LT$impl$u20$core..convert..AsRef$LT$$u5b$u8$u5d$$GT$$u20$for$u20$str$GT$6as_ref17h0ad0c5610f80c783E;
	.scl	3;
	.type	32;
	.endef
	.section	.text,"xr",one_only,_ZN4core3str74_$LT$impl$u20$core..convert..AsRef$LT$$u5b$u8$u5d$$GT$$u20$for$u20$str$GT$6as_ref17h0ad0c5610f80c783E,unique,92
	.p2align	4
_ZN4core3str74_$LT$impl$u20$core..convert..AsRef$LT$$u5b$u8$u5d$$GT$$u20$for$u20$str$GT$6as_ref17h0ad0c5610f80c783E:
	movq	%rcx, %rax
	retq

	.def	_ZN4core3str7pattern14TwoWaySearcher4next17h32722ea146de8767E;
	.scl	3;
	.type	32;
	.endef
	.section	.text,"xr",one_only,_ZN4core3str7pattern14TwoWaySearcher4next17h32722ea146de8767E,unique,93
	.p2align	4
_ZN4core3str7pattern14TwoWaySearcher4next17h32722ea146de8767E:
.seh_proc _ZN4core3str7pattern14TwoWaySearcher4next17h32722ea146de8767E
	subq	$296, %rsp
	.seh_stackalloc 296
	.seh_endprologue
	movq	%r9, 128(%rsp)
	movq	%r8, 136(%rsp)
	movq	%rdx, 144(%rsp)
	movq	%rcx, 152(%rsp)
	movq	%rcx, 160(%rsp)
	movb	352(%rsp), %al
	movb	%al, 175(%rsp)
	movq	344(%rsp), %rax
	movq	%rax, 176(%rsp)
	movq	336(%rsp), %rcx
	movq	%rcx, 184(%rsp)
	movq	32(%rdx), %rcx
	movq	%rcx, 192(%rsp)
	subq	$1, %rax
	movq	%rax, 200(%rsp)
.LBB92_1:
	movq	128(%rsp), %rcx
	movq	144(%rsp), %rdx
	movq	200(%rsp), %rax
	addq	32(%rdx), %rax
	movq	%rax, 120(%rsp)
	cmpq	%rcx, %rax
	jb	.LBB92_3
	movq	192(%rsp), %rdx
	movq	152(%rsp), %rcx
	movq	144(%rsp), %rax
	movq	128(%rsp), %r8
	movq	%r8, 32(%rax)
	movq	32(%rax), %r8
	callq	_ZN89_$LT$core..str..pattern..RejectAndMatch$u20$as$u20$core..str..pattern..TwoWayStrategy$GT$9rejecting17hdee1a0eb34009c88E
	jmp	.LBB92_4
.LBB92_3:
	movq	120(%rsp), %rcx
	movq	136(%rsp), %rax
	addq	%rcx, %rax
	movq	%rax, 208(%rsp)
	movq	208(%rsp), %rax
	movb	(%rax), %al
	movb	%al, 119(%rsp)
	callq	_ZN89_$LT$core..str..pattern..RejectAndMatch$u20$as$u20$core..str..pattern..TwoWayStrategy$GT$16use_early_reject17h80db939bbc3a61cbE
	testb	$1, %al
	jne	.LBB92_6
	jmp	.LBB92_5
.LBB92_4:
	movq	160(%rsp), %rax
	.seh_startepilogue
	addq	$296, %rsp
	.seh_endepilogue
	retq
.LBB92_5:
	movb	119(%rsp), %cl
	movq	144(%rsp), %rax
	movq	24(%rax), %rax
	andb	$63, %cl
	movzbl	%cl, %ecx
	andq	$63, %rcx
	shrq	%cl, %rax
	andq	$1, %rax
	cmpq	$0, %rax
	je	.LBB92_9
	jmp	.LBB92_10
.LBB92_6:
	movq	192(%rsp), %rax
	movq	144(%rsp), %rcx
	cmpq	32(%rcx), %rax
	jne	.LBB92_8
	jmp	.LBB92_5
.LBB92_8:
	movq	192(%rsp), %rdx
	movq	152(%rsp), %rcx
	movq	144(%rsp), %rax
	movq	32(%rax), %r8
	callq	_ZN89_$LT$core..str..pattern..RejectAndMatch$u20$as$u20$core..str..pattern..TwoWayStrategy$GT$9rejecting17hdee1a0eb34009c88E
	jmp	.LBB92_4
.LBB92_9:
	movb	175(%rsp), %al
	movq	144(%rsp), %rcx
	movq	176(%rsp), %rdx
	addq	32(%rcx), %rdx
	movq	%rdx, 32(%rcx)
	testb	$1, %al
	jne	.LBB92_12
	jmp	.LBB92_11
.LBB92_10:
	movb	175(%rsp), %al
	testb	$1, %al
	jne	.LBB92_15
	jmp	.LBB92_14
.LBB92_11:
	movq	144(%rsp), %rax
	movq	$0, 48(%rax)
.LBB92_12:
	jmp	.LBB92_13
.LBB92_13:
	jmp	.LBB92_1
.LBB92_14:
	movq	144(%rsp), %rax
	movq	(%rax), %rcx
	movq	48(%rax), %rdx
	callq	_ZN4core3cmp3Ord3max17hcd4faa3b104f5a0bE
	movq	%rax, 216(%rsp)
	jmp	.LBB92_16
.LBB92_15:
	movq	144(%rsp), %rax
	movq	(%rax), %rax
	movq	%rax, 216(%rsp)
.LBB92_16:
	movq	176(%rsp), %rax
	movq	216(%rsp), %rcx
	movq	%rcx, 224(%rsp)
	movq	%rax, 232(%rsp)
.LBB92_17:
	movq	224(%rsp), %rax
	cmpq	232(%rsp), %rax
	jb	.LBB92_19
	movb	175(%rsp), %al
	testb	$1, %al
	jne	.LBB92_21
	jmp	.LBB92_20
.LBB92_19:
	movq	224(%rsp), %rax
	movq	%rax, 104(%rsp)
	jmp	.LBB92_39
.LBB92_20:
	movq	144(%rsp), %rax
	movq	48(%rax), %rax
	movq	%rax, 256(%rsp)
	jmp	.LBB92_22
.LBB92_21:
	movq	$0, 256(%rsp)
.LBB92_22:
	movq	144(%rsp), %rax
	movq	(%rax), %rax
	movq	256(%rsp), %rcx
	movq	%rcx, 264(%rsp)
	movq	%rax, 272(%rsp)
.LBB92_23:
	movq	264(%rsp), %rax
	cmpq	272(%rsp), %rax
	jb	.LBB92_25
	movb	175(%rsp), %al
	movq	144(%rsp), %rcx
	movq	176(%rsp), %rdx
	movq	32(%rcx), %r8
	movq	%r8, 96(%rsp)
	addq	32(%rcx), %rdx
	movq	%rdx, 32(%rcx)
	testb	$1, %al
	jne	.LBB92_27
	jmp	.LBB92_26
.LBB92_25:
	movq	272(%rsp), %rax
	movq	%rax, 88(%rsp)
	jmp	.LBB92_28
.LBB92_26:
	movq	144(%rsp), %rax
	movq	$0, 48(%rax)
.LBB92_27:
	movq	96(%rsp), %rdx
	movq	152(%rsp), %rcx
	movq	176(%rsp), %rax
	movq	%rdx, %r8
	addq	%rax, %r8
	callq	_ZN89_$LT$core..str..pattern..RejectAndMatch$u20$as$u20$core..str..pattern..TwoWayStrategy$GT$8matching17hd33076b4dd813453E
	jmp	.LBB92_4
.LBB92_28:
	movq	88(%rsp), %rcx
	movl	$1, %edx
	leaq	anon.aea64e3d4c527d9b67f1a42df9b9b7d7.76(%rip), %r8
	callq	_ZN4core3num23_$LT$impl$u20$usize$GT$13unchecked_sub18precondition_check17h2f99a343540fa8b7E
	movq	176(%rsp), %rcx
	movq	88(%rsp), %rax
	subq	$1, %rax
	movq	%rax, 272(%rsp)
	movq	272(%rsp), %rax
	movq	%rax, 288(%rsp)
	movq	$1, 280(%rsp)
	movq	288(%rsp), %rax
	movq	%rax, 80(%rsp)
	cmpq	%rcx, %rax
	jae	.LBB92_31
	movq	128(%rsp), %rcx
	movq	144(%rsp), %rdx
	movq	80(%rsp), %rax
	movq	184(%rsp), %r8
	movb	(%r8,%rax), %r8b
	movb	%r8b, 71(%rsp)
	addq	32(%rdx), %rax
	movq	%rax, 72(%rsp)
	cmpq	%rcx, %rax
	jb	.LBB92_32
	jmp	.LBB92_33
.LBB92_31:
	movq	176(%rsp), %rdx
	movq	80(%rsp), %rcx
	leaq	anon.aea64e3d4c527d9b67f1a42df9b9b7d7.78(%rip), %r8
	callq	_ZN4core9panicking18panic_bounds_check17h34f2c02fdf34faaeE
.LBB92_32:
	movb	71(%rsp), %al
	movq	136(%rsp), %rcx
	movq	72(%rsp), %rdx
	cmpb	(%rcx,%rdx), %al
	jne	.LBB92_35
	jmp	.LBB92_34
.LBB92_33:
	movq	128(%rsp), %rdx
	movq	72(%rsp), %rcx
	leaq	anon.aea64e3d4c527d9b67f1a42df9b9b7d7.79(%rip), %r8
	callq	_ZN4core9panicking18panic_bounds_check17h34f2c02fdf34faaeE
.LBB92_34:
	jmp	.LBB92_23
.LBB92_35:
	movb	175(%rsp), %al
	movq	144(%rsp), %rcx
	movq	16(%rcx), %rdx
	addq	32(%rcx), %rdx
	movq	%rdx, 32(%rcx)
	testb	$1, %al
	jne	.LBB92_37
	movq	144(%rsp), %rax
	movq	176(%rsp), %rcx
	subq	16(%rax), %rcx
	movq	%rcx, 48(%rax)
.LBB92_37:
	jmp	.LBB92_38
.LBB92_38:
	jmp	.LBB92_13
.LBB92_39:
	movq	104(%rsp), %rcx
	movl	$1, %edx
	leaq	anon.aea64e3d4c527d9b67f1a42df9b9b7d7.76(%rip), %r8
	callq	_ZN4core3num23_$LT$impl$u20$usize$GT$13unchecked_add18precondition_check17h6ba710b47a281438E
	movq	176(%rsp), %rcx
	movq	104(%rsp), %rax
	movq	%rax, %rdx
	addq	$1, %rdx
	movq	%rdx, 224(%rsp)
	movq	%rax, 248(%rsp)
	movq	$1, 240(%rsp)
	movq	248(%rsp), %rax
	movq	%rax, 56(%rsp)
	cmpq	%rcx, %rax
	jae	.LBB92_42
	movq	128(%rsp), %rcx
	movq	144(%rsp), %rdx
	movq	56(%rsp), %rax
	movq	184(%rsp), %r8
	movb	(%r8,%rax), %r8b
	movb	%r8b, 47(%rsp)
	addq	32(%rdx), %rax
	movq	%rax, 48(%rsp)
	cmpq	%rcx, %rax
	jb	.LBB92_43
	jmp	.LBB92_44
.LBB92_42:
	movq	176(%rsp), %rdx
	movq	56(%rsp), %rcx
	leaq	anon.aea64e3d4c527d9b67f1a42df9b9b7d7.80(%rip), %r8
	callq	_ZN4core9panicking18panic_bounds_check17h34f2c02fdf34faaeE
.LBB92_43:
	movb	47(%rsp), %al
	movq	136(%rsp), %rcx
	movq	48(%rsp), %rdx
	cmpb	(%rcx,%rdx), %al
	jne	.LBB92_46
	jmp	.LBB92_45
.LBB92_44:
	movq	128(%rsp), %rdx
	movq	48(%rsp), %rcx
	leaq	anon.aea64e3d4c527d9b67f1a42df9b9b7d7.81(%rip), %r8
	callq	_ZN4core9panicking18panic_bounds_check17h34f2c02fdf34faaeE
.LBB92_45:
	jmp	.LBB92_17
.LBB92_46:
	movb	175(%rsp), %al
	movq	144(%rsp), %rcx
	movq	56(%rsp), %rdx
	subq	(%rcx), %rdx
	addq	$1, %rdx
	addq	32(%rcx), %rdx
	movq	%rdx, 32(%rcx)
	testb	$1, %al
	jne	.LBB92_48
	movq	144(%rsp), %rax
	movq	$0, 48(%rax)
.LBB92_48:
	jmp	.LBB92_38
	.seh_endproc

	.def	_ZN4core3str7pattern14TwoWaySearcher4next17h407f68ac5ec158beE;
	.scl	3;
	.type	32;
	.endef
	.section	.text,"xr",one_only,_ZN4core3str7pattern14TwoWaySearcher4next17h407f68ac5ec158beE,unique,94
	.p2align	4
_ZN4core3str7pattern14TwoWaySearcher4next17h407f68ac5ec158beE:
.seh_proc _ZN4core3str7pattern14TwoWaySearcher4next17h407f68ac5ec158beE
	subq	$296, %rsp
	.seh_stackalloc 296
	.seh_endprologue
	movq	%r9, 128(%rsp)
	movq	%r8, 136(%rsp)
	movq	%rdx, 144(%rsp)
	movq	%rcx, 152(%rsp)
	movq	%rcx, 160(%rsp)
	movb	352(%rsp), %al
	movb	%al, 175(%rsp)
	movq	344(%rsp), %rax
	movq	%rax, 176(%rsp)
	movq	336(%rsp), %rcx
	movq	%rcx, 184(%rsp)
	movq	32(%rdx), %rcx
	movq	%rcx, 192(%rsp)
	subq	$1, %rax
	movq	%rax, 200(%rsp)
.LBB93_1:
	movq	128(%rsp), %rcx
	movq	144(%rsp), %rdx
	movq	200(%rsp), %rax
	addq	32(%rdx), %rax
	movq	%rax, 120(%rsp)
	cmpq	%rcx, %rax
	jb	.LBB93_3
	movq	192(%rsp), %rdx
	movq	152(%rsp), %rcx
	movq	144(%rsp), %rax
	movq	128(%rsp), %r8
	movq	%r8, 32(%rax)
	movq	32(%rax), %r8
	callq	_ZN84_$LT$core..str..pattern..MatchOnly$u20$as$u20$core..str..pattern..TwoWayStrategy$GT$9rejecting17h047efb84f975c139E
	jmp	.LBB93_4
.LBB93_3:
	movq	120(%rsp), %rcx
	movq	136(%rsp), %rax
	addq	%rcx, %rax
	movq	%rax, 208(%rsp)
	movq	208(%rsp), %rax
	movb	(%rax), %al
	movb	%al, 119(%rsp)
	callq	_ZN84_$LT$core..str..pattern..MatchOnly$u20$as$u20$core..str..pattern..TwoWayStrategy$GT$16use_early_reject17hdfc6c50a306f9ba1E
	testb	$1, %al
	jne	.LBB93_6
	jmp	.LBB93_5
.LBB93_4:
	movq	160(%rsp), %rax
	.seh_startepilogue
	addq	$296, %rsp
	.seh_endepilogue
	retq
.LBB93_5:
	movb	119(%rsp), %cl
	movq	144(%rsp), %rax
	movq	24(%rax), %rax
	andb	$63, %cl
	movzbl	%cl, %ecx
	andq	$63, %rcx
	shrq	%cl, %rax
	andq	$1, %rax
	cmpq	$0, %rax
	je	.LBB93_9
	jmp	.LBB93_10
.LBB93_6:
	movq	192(%rsp), %rax
	movq	144(%rsp), %rcx
	cmpq	32(%rcx), %rax
	jne	.LBB93_8
	jmp	.LBB93_5
.LBB93_8:
	movq	192(%rsp), %rdx
	movq	152(%rsp), %rcx
	movq	144(%rsp), %rax
	movq	32(%rax), %r8
	callq	_ZN84_$LT$core..str..pattern..MatchOnly$u20$as$u20$core..str..pattern..TwoWayStrategy$GT$9rejecting17h047efb84f975c139E
	jmp	.LBB93_4
.LBB93_9:
	movb	175(%rsp), %al
	movq	144(%rsp), %rcx
	movq	176(%rsp), %rdx
	addq	32(%rcx), %rdx
	movq	%rdx, 32(%rcx)
	testb	$1, %al
	jne	.LBB93_12
	jmp	.LBB93_11
.LBB93_10:
	movb	175(%rsp), %al
	testb	$1, %al
	jne	.LBB93_15
	jmp	.LBB93_14
.LBB93_11:
	movq	144(%rsp), %rax
	movq	$0, 48(%rax)
.LBB93_12:
	jmp	.LBB93_13
.LBB93_13:
	jmp	.LBB93_1
.LBB93_14:
	movq	144(%rsp), %rax
	movq	(%rax), %rcx
	movq	48(%rax), %rdx
	callq	_ZN4core3cmp3Ord3max17hcd4faa3b104f5a0bE
	movq	%rax, 216(%rsp)
	jmp	.LBB93_16
.LBB93_15:
	movq	144(%rsp), %rax
	movq	(%rax), %rax
	movq	%rax, 216(%rsp)
.LBB93_16:
	movq	176(%rsp), %rax
	movq	216(%rsp), %rcx
	movq	%rcx, 224(%rsp)
	movq	%rax, 232(%rsp)
.LBB93_17:
	movq	224(%rsp), %rax
	cmpq	232(%rsp), %rax
	jb	.LBB93_19
	movb	175(%rsp), %al
	testb	$1, %al
	jne	.LBB93_21
	jmp	.LBB93_20
.LBB93_19:
	movq	224(%rsp), %rax
	movq	%rax, 104(%rsp)
	jmp	.LBB93_39
.LBB93_20:
	movq	144(%rsp), %rax
	movq	48(%rax), %rax
	movq	%rax, 256(%rsp)
	jmp	.LBB93_22
.LBB93_21:
	movq	$0, 256(%rsp)
.LBB93_22:
	movq	144(%rsp), %rax
	movq	(%rax), %rax
	movq	256(%rsp), %rcx
	movq	%rcx, 264(%rsp)
	movq	%rax, 272(%rsp)
.LBB93_23:
	movq	264(%rsp), %rax
	cmpq	272(%rsp), %rax
	jb	.LBB93_25
	movb	175(%rsp), %al
	movq	144(%rsp), %rcx
	movq	176(%rsp), %rdx
	movq	32(%rcx), %r8
	movq	%r8, 96(%rsp)
	addq	32(%rcx), %rdx
	movq	%rdx, 32(%rcx)
	testb	$1, %al
	jne	.LBB93_27
	jmp	.LBB93_26
.LBB93_25:
	movq	272(%rsp), %rax
	movq	%rax, 88(%rsp)
	jmp	.LBB93_28
.LBB93_26:
	movq	144(%rsp), %rax
	movq	$0, 48(%rax)
.LBB93_27:
	movq	96(%rsp), %rdx
	movq	152(%rsp), %rcx
	movq	176(%rsp), %rax
	movq	%rdx, %r8
	addq	%rax, %r8
	callq	_ZN84_$LT$core..str..pattern..MatchOnly$u20$as$u20$core..str..pattern..TwoWayStrategy$GT$8matching17h4409c8b325ac5087E
	jmp	.LBB93_4
.LBB93_28:
	movq	88(%rsp), %rcx
	movl	$1, %edx
	leaq	anon.aea64e3d4c527d9b67f1a42df9b9b7d7.76(%rip), %r8
	callq	_ZN4core3num23_$LT$impl$u20$usize$GT$13unchecked_sub18precondition_check17h2f99a343540fa8b7E
	movq	176(%rsp), %rcx
	movq	88(%rsp), %rax
	subq	$1, %rax
	movq	%rax, 272(%rsp)
	movq	272(%rsp), %rax
	movq	%rax, 288(%rsp)
	movq	$1, 280(%rsp)
	movq	288(%rsp), %rax
	movq	%rax, 80(%rsp)
	cmpq	%rcx, %rax
	jae	.LBB93_31
	movq	128(%rsp), %rcx
	movq	144(%rsp), %rdx
	movq	80(%rsp), %rax
	movq	184(%rsp), %r8
	movb	(%r8,%rax), %r8b
	movb	%r8b, 71(%rsp)
	addq	32(%rdx), %rax
	movq	%rax, 72(%rsp)
	cmpq	%rcx, %rax
	jb	.LBB93_32
	jmp	.LBB93_33
.LBB93_31:
	movq	176(%rsp), %rdx
	movq	80(%rsp), %rcx
	leaq	anon.aea64e3d4c527d9b67f1a42df9b9b7d7.78(%rip), %r8
	callq	_ZN4core9panicking18panic_bounds_check17h34f2c02fdf34faaeE
.LBB93_32:
	movb	71(%rsp), %al
	movq	136(%rsp), %rcx
	movq	72(%rsp), %rdx
	cmpb	(%rcx,%rdx), %al
	jne	.LBB93_35
	jmp	.LBB93_34
.LBB93_33:
	movq	128(%rsp), %rdx
	movq	72(%rsp), %rcx
	leaq	anon.aea64e3d4c527d9b67f1a42df9b9b7d7.79(%rip), %r8
	callq	_ZN4core9panicking18panic_bounds_check17h34f2c02fdf34faaeE
.LBB93_34:
	jmp	.LBB93_23
.LBB93_35:
	movb	175(%rsp), %al
	movq	144(%rsp), %rcx
	movq	16(%rcx), %rdx
	addq	32(%rcx), %rdx
	movq	%rdx, 32(%rcx)
	testb	$1, %al
	jne	.LBB93_37
	movq	144(%rsp), %rax
	movq	176(%rsp), %rcx
	subq	16(%rax), %rcx
	movq	%rcx, 48(%rax)
.LBB93_37:
	jmp	.LBB93_38
.LBB93_38:
	jmp	.LBB93_13
.LBB93_39:
	movq	104(%rsp), %rcx
	movl	$1, %edx
	leaq	anon.aea64e3d4c527d9b67f1a42df9b9b7d7.76(%rip), %r8
	callq	_ZN4core3num23_$LT$impl$u20$usize$GT$13unchecked_add18precondition_check17h6ba710b47a281438E
	movq	176(%rsp), %rcx
	movq	104(%rsp), %rax
	movq	%rax, %rdx
	addq	$1, %rdx
	movq	%rdx, 224(%rsp)
	movq	%rax, 248(%rsp)
	movq	$1, 240(%rsp)
	movq	248(%rsp), %rax
	movq	%rax, 56(%rsp)
	cmpq	%rcx, %rax
	jae	.LBB93_42
	movq	128(%rsp), %rcx
	movq	144(%rsp), %rdx
	movq	56(%rsp), %rax
	movq	184(%rsp), %r8
	movb	(%r8,%rax), %r8b
	movb	%r8b, 47(%rsp)
	addq	32(%rdx), %rax
	movq	%rax, 48(%rsp)
	cmpq	%rcx, %rax
	jb	.LBB93_43
	jmp	.LBB93_44
.LBB93_42:
	movq	176(%rsp), %rdx
	movq	56(%rsp), %rcx
	leaq	anon.aea64e3d4c527d9b67f1a42df9b9b7d7.80(%rip), %r8
	callq	_ZN4core9panicking18panic_bounds_check17h34f2c02fdf34faaeE
.LBB93_43:
	movb	47(%rsp), %al
	movq	136(%rsp), %rcx
	movq	48(%rsp), %rdx
	cmpb	(%rcx,%rdx), %al
	jne	.LBB93_46
	jmp	.LBB93_45
.LBB93_44:
	movq	128(%rsp), %rdx
	movq	48(%rsp), %rcx
	leaq	anon.aea64e3d4c527d9b67f1a42df9b9b7d7.81(%rip), %r8
	callq	_ZN4core9panicking18panic_bounds_check17h34f2c02fdf34faaeE
.LBB93_45:
	jmp	.LBB93_17
.LBB93_46:
	movb	175(%rsp), %al
	movq	144(%rsp), %rcx
	movq	56(%rsp), %rdx
	subq	(%rcx), %rdx
	addq	$1, %rdx
	addq	32(%rcx), %rdx
	movq	%rdx, 32(%rcx)
	testb	$1, %al
	jne	.LBB93_48
	movq	144(%rsp), %rax
	movq	$0, 48(%rax)
.LBB93_48:
	jmp	.LBB93_38
	.seh_endproc

	.def	_ZN4core3str7pattern8Searcher10next_match17hf5c30fdfd5e6d35fE;
	.scl	3;
	.type	32;
	.endef
	.section	.text,"xr",one_only,_ZN4core3str7pattern8Searcher10next_match17hf5c30fdfd5e6d35fE,unique,95
	.p2align	4
_ZN4core3str7pattern8Searcher10next_match17hf5c30fdfd5e6d35fE:
.seh_proc _ZN4core3str7pattern8Searcher10next_match17hf5c30fdfd5e6d35fE
	subq	$88, %rsp
	.seh_stackalloc 88
	.seh_endprologue
	movq	%rdx, 40(%rsp)
	movq	%rcx, 48(%rsp)
	movq	%rcx, 56(%rsp)
.LBB94_1:
	movq	40(%rsp), %rdx
	leaq	64(%rsp), %rcx
	callq	_ZN97_$LT$core..str..pattern..MultiCharEqSearcher$LT$C$GT$$u20$as$u20$core..str..pattern..Searcher$GT$4next17h997fc7e5584d2158E
	movq	64(%rsp), %rax
	movq	%rax, 32(%rsp)
	testq	%rax, %rax
	je	.LBB94_3
	jmp	.LBB94_7
.LBB94_7:
	movq	32(%rsp), %rax
	subq	$1, %rax
	je	.LBB94_5
	jmp	.LBB94_8
.LBB94_8:
	jmp	.LBB94_4
	ud2
.LBB94_3:
	movq	48(%rsp), %rax
	movq	72(%rsp), %rdx
	movq	80(%rsp), %rcx
	movq	%rdx, 8(%rax)
	movq	%rcx, 16(%rax)
	movq	$1, (%rax)
	jmp	.LBB94_6
.LBB94_4:
	movq	48(%rsp), %rax
	movq	$0, (%rax)
	jmp	.LBB94_6
.LBB94_5:
	jmp	.LBB94_1
.LBB94_6:
	movq	56(%rsp), %rax
	.seh_startepilogue
	addq	$88, %rsp
	.seh_endepilogue
	retq
	.seh_endproc

	.def	_ZN4core4char7convert18from_u32_unchecked18precondition_check17h326bd777d7a32710E;
	.scl	3;
	.type	32;
	.endef
	.section	.text,"xr",one_only,_ZN4core4char7convert18from_u32_unchecked18precondition_check17h326bd777d7a32710E,unique,96
	.p2align	4
_ZN4core4char7convert18from_u32_unchecked18precondition_check17h326bd777d7a32710E:
.seh_proc _ZN4core4char7convert18from_u32_unchecked18precondition_check17h326bd777d7a32710E
	subq	$104, %rsp
	.seh_stackalloc 104
	.seh_endprologue
	movq	%rdx, 32(%rsp)
	movl	%ecx, %eax
	xorl	$55296, %eax
	subl	$2048, %eax
	cmpl	$1112064, %eax
	jae	.LBB95_2
	.seh_startepilogue
	addq	$104, %rsp
	.seh_endepilogue
	retq
.LBB95_2:
	movq	32(%rsp), %r8
	leaq	anon.aea64e3d4c527d9b67f1a42df9b9b7d7.82(%rip), %rax
	movq	%rax, 88(%rsp)
	movq	$174, 96(%rsp)
	leaq	88(%rsp), %rax
	movq	%rax, 40(%rsp)
	movq	$1, 48(%rsp)
	movq	anon.aea64e3d4c527d9b67f1a42df9b9b7d7.1(%rip), %rcx
	movq	anon.aea64e3d4c527d9b67f1a42df9b9b7d7.1+8(%rip), %rax
	movq	%rcx, 72(%rsp)
	movq	%rax, 80(%rsp)
	movl	$8, %eax
	movq	%rax, 56(%rsp)
	movq	$0, 64(%rsp)
	leaq	40(%rsp), %rcx
	xorl	%edx, %edx
	callq	_ZN4core9panicking18panic_nounwind_fmt17h93b15706b0f16961E
	int3
	.seh_endproc

	.def	_ZN4core4char7methods22_$LT$impl$u20$char$GT$13is_whitespace17hb72db75db417d314E;
	.scl	3;
	.type	32;
	.endef
	.section	.text,"xr",one_only,_ZN4core4char7methods22_$LT$impl$u20$char$GT$13is_whitespace17hb72db75db417d314E,unique,97
	.p2align	4
_ZN4core4char7methods22_$LT$impl$u20$char$GT$13is_whitespace17hb72db75db417d314E:
.seh_proc _ZN4core4char7methods22_$LT$impl$u20$char$GT$13is_whitespace17hb72db75db417d314E
	subq	$40, %rsp
	.seh_stackalloc 40
	.seh_endprologue
	movl	%ecx, 32(%rsp)
	cmpl	$32, %ecx
	jne	.LBB96_2
.LBB96_1:
	movb	$1, 39(%rsp)
	jmp	.LBB96_8
.LBB96_2:
	movl	32(%rsp), %ecx
	movl	$9, %eax
	cmpl	%ecx, %eax
	jbe	.LBB96_4
.LBB96_3:
	movl	32(%rsp), %eax
	cmpl	$127, %eax
	ja	.LBB96_6
	jmp	.LBB96_5
.LBB96_4:
	movl	32(%rsp), %eax
	cmpl	$13, %eax
	jbe	.LBB96_1
	jmp	.LBB96_3
.LBB96_5:
	movb	$0, 39(%rsp)
	jmp	.LBB96_7
.LBB96_6:
	movl	32(%rsp), %ecx
	callq	_ZN4core7unicode12unicode_data11white_space6lookup17h0e27dc8491b8766eE
	andb	$1, %al
	movb	%al, 39(%rsp)
.LBB96_7:
	jmp	.LBB96_8
.LBB96_8:
	movb	39(%rsp), %al
	andb	$1, %al
	.seh_startepilogue
	addq	$40, %rsp
	.seh_endepilogue
	retq
	.seh_endproc

	.def	_ZN4core4hint16assert_unchecked18precondition_check17hd89aa40de60fc7c1E;
	.scl	3;
	.type	32;
	.endef
	.section	.text,"xr",one_only,_ZN4core4hint16assert_unchecked18precondition_check17hd89aa40de60fc7c1E,unique,98
	.p2align	4
_ZN4core4hint16assert_unchecked18precondition_check17hd89aa40de60fc7c1E:
.seh_proc _ZN4core4hint16assert_unchecked18precondition_check17hd89aa40de60fc7c1E
	subq	$104, %rsp
	.seh_stackalloc 104
	.seh_endprologue
	movq	%rdx, 32(%rsp)
	testb	$1, %cl
	jne	.LBB97_2
	movq	32(%rsp), %r8
	leaq	anon.aea64e3d4c527d9b67f1a42df9b9b7d7.83(%rip), %rax
	movq	%rax, 88(%rsp)
	movq	$221, 96(%rsp)
	leaq	88(%rsp), %rax
	movq	%rax, 40(%rsp)
	movq	$1, 48(%rsp)
	movq	anon.aea64e3d4c527d9b67f1a42df9b9b7d7.1(%rip), %rcx
	movq	anon.aea64e3d4c527d9b67f1a42df9b9b7d7.1+8(%rip), %rax
	movq	%rcx, 72(%rsp)
	movq	%rax, 80(%rsp)
	movl	$8, %eax
	movq	%rax, 56(%rsp)
	movq	$0, 64(%rsp)
	leaq	40(%rsp), %rcx
	xorl	%edx, %edx
	callq	_ZN4core9panicking18panic_nounwind_fmt17h93b15706b0f16961E
.LBB97_2:
	nop
	.seh_startepilogue
	addq	$104, %rsp
	.seh_endepilogue
	retq
	.seh_endproc

	.def	_ZN4core4hint21unreachable_unchecked18precondition_check17hf7764ed7709c938bE;
	.scl	3;
	.type	32;
	.endef
	.section	.text,"xr",one_only,_ZN4core4hint21unreachable_unchecked18precondition_check17hf7764ed7709c938bE,unique,99
	.p2align	4
_ZN4core4hint21unreachable_unchecked18precondition_check17hf7764ed7709c938bE:
.seh_proc _ZN4core4hint21unreachable_unchecked18precondition_check17hf7764ed7709c938bE
	subq	$104, %rsp
	.seh_stackalloc 104
	.seh_endprologue
	movq	%rcx, %r8
	leaq	anon.aea64e3d4c527d9b67f1a42df9b9b7d7.84(%rip), %rax
	movq	%rax, 88(%rsp)
	movq	$199, 96(%rsp)
	leaq	88(%rsp), %rax
	movq	%rax, 40(%rsp)
	movq	$1, 48(%rsp)
	movq	anon.aea64e3d4c527d9b67f1a42df9b9b7d7.1(%rip), %rcx
	movq	anon.aea64e3d4c527d9b67f1a42df9b9b7d7.1+8(%rip), %rax
	movq	%rcx, 72(%rsp)
	movq	%rax, 80(%rsp)
	movl	$8, %eax
	movq	%rax, 56(%rsp)
	movq	$0, 64(%rsp)
	leaq	40(%rsp), %rcx
	xorl	%edx, %edx
	callq	_ZN4core9panicking18panic_nounwind_fmt17h93b15706b0f16961E
	int3
	.seh_endproc

	.def	_ZN4core4iter6traits8iterator8Iterator4find17hd360cc4f6e5da1a4E;
	.scl	3;
	.type	32;
	.endef
	.section	.text,"xr",one_only,_ZN4core4iter6traits8iterator8Iterator4find17hd360cc4f6e5da1a4E,unique,100
	.p2align	4
_ZN4core4iter6traits8iterator8Iterator4find17hd360cc4f6e5da1a4E:
.seh_proc _ZN4core4iter6traits8iterator8Iterator4find17hd360cc4f6e5da1a4E
	subq	$72, %rsp
	.seh_stackalloc 72
	.seh_endprologue
	callq	_ZN4core4iter6traits8iterator8Iterator8try_fold17hfdf65f516314476dE
	movq	%rax, 56(%rsp)
	movq	%rdx, 64(%rsp)
	movq	56(%rsp), %rdx
	movl	$1, %eax
	xorl	%ecx, %ecx
	cmpq	$0, %rdx
	cmoveq	%rcx, %rax
	testq	$1, %rax
	je	.LBB99_2
	movq	56(%rsp), %rcx
	movq	64(%rsp), %rax
	movq	%rcx, 40(%rsp)
	movq	%rax, 48(%rsp)
	jmp	.LBB99_3
.LBB99_2:
	movq	$0, 40(%rsp)
.LBB99_3:
	movq	56(%rsp), %rdx
	movl	$1, %eax
	xorl	%ecx, %ecx
	cmpq	$0, %rdx
	cmoveq	%rcx, %rax
	testq	$1, %rax
	je	.LBB99_5
.LBB99_4:
	movq	40(%rsp), %rax
	movq	48(%rsp), %rdx
	.seh_startepilogue
	addq	$72, %rsp
	.seh_endepilogue
	retq
.LBB99_5:
	jmp	.LBB99_4
	.seh_endproc

	.def	_ZN4core4iter6traits8iterator8Iterator4find5check28_$u7b$$u7b$closure$u7d$$u7d$17h06bc241c71177918E;
	.scl	3;
	.type	32;
	.endef
	.section	.text,"xr",one_only,_ZN4core4iter6traits8iterator8Iterator4find5check28_$u7b$$u7b$closure$u7d$$u7d$17h06bc241c71177918E,unique,101
	.p2align	4
_ZN4core4iter6traits8iterator8Iterator4find5check28_$u7b$$u7b$closure$u7d$$u7d$17h06bc241c71177918E:
.Lfunc_begin18:
.seh_proc _ZN4core4iter6traits8iterator8Iterator4find5check28_$u7b$$u7b$closure$u7d$$u7d$17h06bc241c71177918E
	.seh_handler __CxxFrameHandler3, @unwind, @except
	pushq	%rbp
	.seh_pushreg %rbp
	subq	$80, %rsp
	.seh_stackalloc 80
	leaq	80(%rsp), %rbp
	.seh_setframe %rbp, 80
	.seh_endprologue
	movq	$-2, -8(%rbp)
	movq	%rdx, -40(%rbp)
	movq	%r8, -32(%rbp)
.Ltmp178:
	leaq	-40(%rbp), %rdx
	callq	_ZN4core3ops8function5impls79_$LT$impl$u20$core..ops..function..FnMut$LT$A$GT$$u20$for$u20$$RF$mut$u20$F$GT$8call_mut17h2fdbf17dac8d0dcaE
.Ltmp179:
	movb	%al, -41(%rbp)
	jmp	.LBB100_2
.LBB100_2:
	movb	-41(%rbp), %al
	testb	$1, %al
	jne	.LBB100_4
	jmp	.LBB100_3
.LBB100_3:
	movq	$0, -24(%rbp)
	jmp	.LBB100_5
.LBB100_4:
	movq	-40(%rbp), %rcx
	movq	-32(%rbp), %rax
	movq	%rcx, -24(%rbp)
	movq	%rax, -16(%rbp)
.LBB100_5:
	movq	-24(%rbp), %rax
	movq	-16(%rbp), %rdx
	.seh_startepilogue
	addq	$80, %rsp
	popq	%rbp
	.seh_endepilogue
	retq
	.seh_handlerdata
	.long	$cppxdata$_ZN4core4iter6traits8iterator8Iterator4find5check28_$u7b$$u7b$closure$u7d$$u7d$17h06bc241c71177918E@IMGREL
	.section	.text,"xr",one_only,_ZN4core4iter6traits8iterator8Iterator4find5check28_$u7b$$u7b$closure$u7d$$u7d$17h06bc241c71177918E,unique,101
	.seh_endproc
	.def	"?dtor$1@?0?_ZN4core4iter6traits8iterator8Iterator4find5check28_$u7b$$u7b$closure$u7d$$u7d$17h06bc241c71177918E@4HA";
	.scl	3;
	.type	32;
	.endef
	.p2align	4
"?dtor$1@?0?_ZN4core4iter6traits8iterator8Iterator4find5check28_$u7b$$u7b$closure$u7d$$u7d$17h06bc241c71177918E@4HA":
.seh_proc "?dtor$1@?0?_ZN4core4iter6traits8iterator8Iterator4find5check28_$u7b$$u7b$closure$u7d$$u7d$17h06bc241c71177918E@4HA"
.LBB100_1:
	movq	%rdx, 16(%rsp)
	pushq	%rbp
	.seh_pushreg %rbp
	subq	$32, %rsp
	.seh_stackalloc 32
	leaq	80(%rdx), %rbp
	.seh_endprologue
	.seh_startepilogue
	addq	$32, %rsp
	popq	%rbp
	.seh_endepilogue
	retq
.Lfunc_end18:
	.seh_handlerdata
	.section	.text,"xr",one_only,_ZN4core4iter6traits8iterator8Iterator4find5check28_$u7b$$u7b$closure$u7d$$u7d$17h06bc241c71177918E,unique,101
	.seh_endproc
	.section	.xdata,"dr",associative,_ZN4core4iter6traits8iterator8Iterator4find5check28_$u7b$$u7b$closure$u7d$$u7d$17h06bc241c71177918E,unique,18
	.p2align	2, 0x0
$cppxdata$_ZN4core4iter6traits8iterator8Iterator4find5check28_$u7b$$u7b$closure$u7d$$u7d$17h06bc241c71177918E:
	.long	429065506
	.long	1
	.long	$stateUnwindMap$_ZN4core4iter6traits8iterator8Iterator4find5check28_$u7b$$u7b$closure$u7d$$u7d$17h06bc241c71177918E@IMGREL
	.long	0
	.long	0
	.long	3
	.long	$ip2state$_ZN4core4iter6traits8iterator8Iterator4find5check28_$u7b$$u7b$closure$u7d$$u7d$17h06bc241c71177918E@IMGREL
	.long	72
	.long	0
	.long	1
$stateUnwindMap$_ZN4core4iter6traits8iterator8Iterator4find5check28_$u7b$$u7b$closure$u7d$$u7d$17h06bc241c71177918E:
	.long	-1
	.long	"?dtor$1@?0?_ZN4core4iter6traits8iterator8Iterator4find5check28_$u7b$$u7b$closure$u7d$$u7d$17h06bc241c71177918E@4HA"@IMGREL
$ip2state$_ZN4core4iter6traits8iterator8Iterator4find5check28_$u7b$$u7b$closure$u7d$$u7d$17h06bc241c71177918E:
	.long	.Lfunc_begin18@IMGREL
	.long	-1
	.long	.Ltmp178@IMGREL+1
	.long	0
	.long	.Ltmp179@IMGREL+1
	.long	-1
	.section	.text,"xr",one_only,_ZN4core4iter6traits8iterator8Iterator4find5check28_$u7b$$u7b$closure$u7d$$u7d$17h06bc241c71177918E,unique,101

	.def	_ZN4core4iter6traits8iterator8Iterator7collect17h83299bd155b5e8beE;
	.scl	3;
	.type	32;
	.endef
	.section	.text,"xr",one_only,_ZN4core4iter6traits8iterator8Iterator7collect17h83299bd155b5e8beE,unique,102
	.p2align	4
_ZN4core4iter6traits8iterator8Iterator7collect17h83299bd155b5e8beE:
.seh_proc _ZN4core4iter6traits8iterator8Iterator7collect17h83299bd155b5e8beE
	subq	$40, %rsp
	.seh_stackalloc 40
	.seh_endprologue
	movq	%rcx, %rax
	movq	%rax, 32(%rsp)
	callq	_ZN95_$LT$alloc..vec..Vec$LT$T$GT$$u20$as$u20$core..iter..traits..collect..FromIterator$LT$T$GT$$GT$9from_iter17h46adc87aa00dc510E
	movq	32(%rsp), %rax
	.seh_startepilogue
	addq	$40, %rsp
	.seh_endepilogue
	retq
	.seh_endproc

	.def	_ZN4core4iter6traits8iterator8Iterator7collect17h85f5aa26b09a1a44E;
	.scl	3;
	.type	32;
	.endef
	.section	.text,"xr",one_only,_ZN4core4iter6traits8iterator8Iterator7collect17h85f5aa26b09a1a44E,unique,103
	.p2align	4
_ZN4core4iter6traits8iterator8Iterator7collect17h85f5aa26b09a1a44E:
.seh_proc _ZN4core4iter6traits8iterator8Iterator7collect17h85f5aa26b09a1a44E
	subq	$40, %rsp
	.seh_stackalloc 40
	.seh_endprologue
	movq	%rcx, %rax
	movq	%rax, 32(%rsp)
	callq	_ZN95_$LT$alloc..vec..Vec$LT$T$GT$$u20$as$u20$core..iter..traits..collect..FromIterator$LT$T$GT$$GT$9from_iter17h6d763c7012d51712E
	movq	32(%rsp), %rax
	.seh_startepilogue
	addq	$40, %rsp
	.seh_endepilogue
	retq
	.seh_endproc

	.def	_ZN4core4iter6traits8iterator8Iterator7collect17h95a479f1e5ca8f2eE;
	.scl	3;
	.type	32;
	.endef
	.section	.text,"xr",one_only,_ZN4core4iter6traits8iterator8Iterator7collect17h95a479f1e5ca8f2eE,unique,104
	.p2align	4
_ZN4core4iter6traits8iterator8Iterator7collect17h95a479f1e5ca8f2eE:
.seh_proc _ZN4core4iter6traits8iterator8Iterator7collect17h95a479f1e5ca8f2eE
	subq	$40, %rsp
	.seh_stackalloc 40
	.seh_endprologue
	movq	%rcx, %rax
	movq	%rax, 32(%rsp)
	callq	_ZN95_$LT$alloc..vec..Vec$LT$T$GT$$u20$as$u20$core..iter..traits..collect..FromIterator$LT$T$GT$$GT$9from_iter17h9bde3bcd4fb86bb4E
	movq	32(%rsp), %rax
	.seh_startepilogue
	addq	$40, %rsp
	.seh_endepilogue
	retq
	.seh_endproc

	.def	_ZN4core4iter6traits8iterator8Iterator8try_fold17h6a50ed1e67c48a41E;
	.scl	3;
	.type	32;
	.endef
	.section	.text,"xr",one_only,_ZN4core4iter6traits8iterator8Iterator8try_fold17h6a50ed1e67c48a41E,unique,105
	.p2align	4
_ZN4core4iter6traits8iterator8Iterator8try_fold17h6a50ed1e67c48a41E:
.Lfunc_begin19:
.seh_proc _ZN4core4iter6traits8iterator8Iterator8try_fold17h6a50ed1e67c48a41E
	.seh_handler __CxxFrameHandler3, @unwind, @except
	pushq	%rbp
	.seh_pushreg %rbp
	subq	$192, %rsp
	.seh_stackalloc 192
	leaq	128(%rsp), %rbp
	.seh_setframe %rbp, 128
	.seh_endprologue
	movq	$-2, 56(%rbp)
	movq	%rcx, -16(%rbp)
	movq	%r8, -8(%rbp)
	movb	$1, 55(%rbp)
	movq	%rdx, 16(%rbp)
.LBB104_1:
.Ltmp180:
	movq	-16(%rbp), %rcx
	callq	_ZN91_$LT$core..slice..iter..Iter$LT$T$GT$$u20$as$u20$core..iter..traits..iterator..Iterator$GT$4next17h1ab109c20691a685E
.Ltmp181:
	movq	%rax, -24(%rbp)
	jmp	.LBB104_3
.LBB104_3:
	movq	-24(%rbp), %rax
	movq	%rax, 24(%rbp)
	movq	24(%rbp), %rdx
	movl	$1, %eax
	xorl	%ecx, %ecx
	cmpq	$0, %rdx
	cmoveq	%rcx, %rax
	testq	$1, %rax
	je	.LBB104_5
	movq	24(%rbp), %r8
	movb	$0, 55(%rbp)
	movq	16(%rbp), %rdx
.Ltmp184:
	leaq	-8(%rbp), %rcx
	callq	_ZN4core4iter8adapters3map12map_try_fold28_$u7b$$u7b$closure$u7d$$u7d$17hfc2100e890a45e85E
.Ltmp185:
	movq	%rdx, -40(%rbp)
	movq	%rax, -32(%rbp)
	jmp	.LBB104_6
.LBB104_5:
	movb	$0, 55(%rbp)
	movq	16(%rbp), %rcx
.Ltmp182:
	callq	_ZN75_$LT$core..option..Option$LT$T$GT$$u20$as$u20$core..ops..try_trait..Try$GT$11from_output17h92e70885713d8b38E
.Ltmp183:
	movq	%rdx, -56(%rbp)
	movq	%rax, -48(%rbp)
	jmp	.LBB104_12
.LBB104_6:
.Ltmp186:
	movq	-40(%rbp), %rdx
	movq	-32(%rbp), %rcx
	callq	_ZN75_$LT$core..option..Option$LT$T$GT$$u20$as$u20$core..ops..try_trait..Try$GT$6branch17h373949261854575cE
.Ltmp187:
	movq	%rdx, -72(%rbp)
	movq	%rax, -64(%rbp)
	jmp	.LBB104_7
.LBB104_7:
	movq	-72(%rbp), %rax
	movq	-64(%rbp), %rcx
	movq	%rcx, 32(%rbp)
	movq	%rax, 40(%rbp)
	testq	$1, 32(%rbp)
	je	.LBB104_9
.Ltmp188:
	callq	_ZN145_$LT$core..option..Option$LT$T$GT$$u20$as$u20$core..ops..try_trait..FromResidual$LT$core..option..Option$LT$core..convert..Infallible$GT$$GT$$GT$13from_residual17hc6f812e92aafce93E
.Ltmp189:
	movq	%rdx, -88(%rbp)
	movq	%rax, -80(%rbp)
	jmp	.LBB104_10
.LBB104_9:
	movq	40(%rbp), %rax
	movb	$1, 55(%rbp)
	movq	%rax, 16(%rbp)
	jmp	.LBB104_1
.LBB104_10:
	movq	-88(%rbp), %rax
	movq	-80(%rbp), %rcx
	movq	%rcx, (%rbp)
	movq	%rax, 8(%rbp)
.LBB104_11:
	movq	(%rbp), %rax
	movq	8(%rbp), %rdx
	.seh_startepilogue
	addq	$192, %rsp
	popq	%rbp
	.seh_endepilogue
	retq
.LBB104_12:
	movq	-56(%rbp), %rax
	movq	-48(%rbp), %rcx
	movq	%rcx, (%rbp)
	movq	%rax, 8(%rbp)
	jmp	.LBB104_11
	.seh_handlerdata
	.long	$cppxdata$_ZN4core4iter6traits8iterator8Iterator8try_fold17h6a50ed1e67c48a41E@IMGREL
	.section	.text,"xr",one_only,_ZN4core4iter6traits8iterator8Iterator8try_fold17h6a50ed1e67c48a41E,unique,105
	.seh_endproc
	.def	"?dtor$2@?0?_ZN4core4iter6traits8iterator8Iterator8try_fold17h6a50ed1e67c48a41E@4HA";
	.scl	3;
	.type	32;
	.endef
	.p2align	4
"?dtor$2@?0?_ZN4core4iter6traits8iterator8Iterator8try_fold17h6a50ed1e67c48a41E@4HA":
.seh_proc "?dtor$2@?0?_ZN4core4iter6traits8iterator8Iterator8try_fold17h6a50ed1e67c48a41E@4HA"
.LBB104_2:
	movq	%rdx, 16(%rsp)
	pushq	%rbp
	.seh_pushreg %rbp
	subq	$32, %rsp
	.seh_stackalloc 32
	leaq	128(%rdx), %rbp
	.seh_endprologue
	testb	$1, 55(%rbp)
	jne	.LBB104_14
	jmp	.LBB104_13
.LBB104_13:
	.seh_startepilogue
	addq	$32, %rsp
	popq	%rbp
	.seh_endepilogue
	retq
.LBB104_14:
	jmp	.LBB104_13
.Lfunc_end19:
	.seh_handlerdata
	.section	.text,"xr",one_only,_ZN4core4iter6traits8iterator8Iterator8try_fold17h6a50ed1e67c48a41E,unique,105
	.seh_endproc
	.section	.xdata,"dr",associative,_ZN4core4iter6traits8iterator8Iterator8try_fold17h6a50ed1e67c48a41E,unique,19
	.p2align	2, 0x0
$cppxdata$_ZN4core4iter6traits8iterator8Iterator8try_fold17h6a50ed1e67c48a41E:
	.long	429065506
	.long	1
	.long	$stateUnwindMap$_ZN4core4iter6traits8iterator8Iterator8try_fold17h6a50ed1e67c48a41E@IMGREL
	.long	0
	.long	0
	.long	3
	.long	$ip2state$_ZN4core4iter6traits8iterator8Iterator8try_fold17h6a50ed1e67c48a41E@IMGREL
	.long	184
	.long	0
	.long	1
$stateUnwindMap$_ZN4core4iter6traits8iterator8Iterator8try_fold17h6a50ed1e67c48a41E:
	.long	-1
	.long	"?dtor$2@?0?_ZN4core4iter6traits8iterator8Iterator8try_fold17h6a50ed1e67c48a41E@4HA"@IMGREL
$ip2state$_ZN4core4iter6traits8iterator8Iterator8try_fold17h6a50ed1e67c48a41E:
	.long	.Lfunc_begin19@IMGREL
	.long	-1
	.long	.Ltmp180@IMGREL+1
	.long	0
	.long	.Ltmp189@IMGREL+1
	.long	-1
	.section	.text,"xr",one_only,_ZN4core4iter6traits8iterator8Iterator8try_fold17h6a50ed1e67c48a41E,unique,105

	.def	_ZN4core4iter6traits8iterator8Iterator8try_fold17hb02b3f3a750f36f5E;
	.scl	3;
	.type	32;
	.endef
	.section	.text,"xr",one_only,_ZN4core4iter6traits8iterator8Iterator8try_fold17hb02b3f3a750f36f5E,unique,106
	.p2align	4
_ZN4core4iter6traits8iterator8Iterator8try_fold17hb02b3f3a750f36f5E:
.Lfunc_begin20:
.seh_proc _ZN4core4iter6traits8iterator8Iterator8try_fold17hb02b3f3a750f36f5E
	.seh_handler __CxxFrameHandler3, @unwind, @except
	pushq	%rbp
	.seh_pushreg %rbp
	subq	$192, %rsp
	.seh_stackalloc 192
	leaq	128(%rsp), %rbp
	.seh_setframe %rbp, 128
	.seh_endprologue
	movq	$-2, 56(%rbp)
	movq	%rcx, -16(%rbp)
	movq	%r8, -8(%rbp)
	movb	$1, 55(%rbp)
	movq	%rdx, 16(%rbp)
.LBB105_1:
.Ltmp190:
	movq	-16(%rbp), %rcx
	callq	_ZN91_$LT$core..slice..iter..Iter$LT$T$GT$$u20$as$u20$core..iter..traits..iterator..Iterator$GT$4next17hc259a8e277e71885E
.Ltmp191:
	movq	%rax, -24(%rbp)
	jmp	.LBB105_3
.LBB105_3:
	movq	-24(%rbp), %rax
	movq	%rax, 24(%rbp)
	movq	24(%rbp), %rdx
	movl	$1, %eax
	xorl	%ecx, %ecx
	cmpq	$0, %rdx
	cmoveq	%rcx, %rax
	testq	$1, %rax
	je	.LBB105_5
	movq	24(%rbp), %r8
	movb	$0, 55(%rbp)
	movq	16(%rbp), %rdx
.Ltmp194:
	leaq	-8(%rbp), %rcx
	callq	_ZN4core4iter8adapters3map12map_try_fold28_$u7b$$u7b$closure$u7d$$u7d$17hb76dcbb1880e5f87E
.Ltmp195:
	movq	%rdx, -40(%rbp)
	movq	%rax, -32(%rbp)
	jmp	.LBB105_6
.LBB105_5:
	movb	$0, 55(%rbp)
	movq	16(%rbp), %rcx
.Ltmp192:
	callq	_ZN75_$LT$core..option..Option$LT$T$GT$$u20$as$u20$core..ops..try_trait..Try$GT$11from_output17h92e70885713d8b38E
.Ltmp193:
	movq	%rdx, -56(%rbp)
	movq	%rax, -48(%rbp)
	jmp	.LBB105_12
.LBB105_6:
.Ltmp196:
	movq	-40(%rbp), %rdx
	movq	-32(%rbp), %rcx
	callq	_ZN75_$LT$core..option..Option$LT$T$GT$$u20$as$u20$core..ops..try_trait..Try$GT$6branch17h373949261854575cE
.Ltmp197:
	movq	%rdx, -72(%rbp)
	movq	%rax, -64(%rbp)
	jmp	.LBB105_7
.LBB105_7:
	movq	-72(%rbp), %rax
	movq	-64(%rbp), %rcx
	movq	%rcx, 32(%rbp)
	movq	%rax, 40(%rbp)
	testq	$1, 32(%rbp)
	je	.LBB105_9
.Ltmp198:
	callq	_ZN145_$LT$core..option..Option$LT$T$GT$$u20$as$u20$core..ops..try_trait..FromResidual$LT$core..option..Option$LT$core..convert..Infallible$GT$$GT$$GT$13from_residual17hc6f812e92aafce93E
.Ltmp199:
	movq	%rdx, -88(%rbp)
	movq	%rax, -80(%rbp)
	jmp	.LBB105_10
.LBB105_9:
	movq	40(%rbp), %rax
	movb	$1, 55(%rbp)
	movq	%rax, 16(%rbp)
	jmp	.LBB105_1
.LBB105_10:
	movq	-88(%rbp), %rax
	movq	-80(%rbp), %rcx
	movq	%rcx, (%rbp)
	movq	%rax, 8(%rbp)
.LBB105_11:
	movq	(%rbp), %rax
	movq	8(%rbp), %rdx
	.seh_startepilogue
	addq	$192, %rsp
	popq	%rbp
	.seh_endepilogue
	retq
.LBB105_12:
	movq	-56(%rbp), %rax
	movq	-48(%rbp), %rcx
	movq	%rcx, (%rbp)
	movq	%rax, 8(%rbp)
	jmp	.LBB105_11
	.seh_handlerdata
	.long	$cppxdata$_ZN4core4iter6traits8iterator8Iterator8try_fold17hb02b3f3a750f36f5E@IMGREL
	.section	.text,"xr",one_only,_ZN4core4iter6traits8iterator8Iterator8try_fold17hb02b3f3a750f36f5E,unique,106
	.seh_endproc
	.def	"?dtor$2@?0?_ZN4core4iter6traits8iterator8Iterator8try_fold17hb02b3f3a750f36f5E@4HA";
	.scl	3;
	.type	32;
	.endef
	.p2align	4
"?dtor$2@?0?_ZN4core4iter6traits8iterator8Iterator8try_fold17hb02b3f3a750f36f5E@4HA":
.seh_proc "?dtor$2@?0?_ZN4core4iter6traits8iterator8Iterator8try_fold17hb02b3f3a750f36f5E@4HA"
.LBB105_2:
	movq	%rdx, 16(%rsp)
	pushq	%rbp
	.seh_pushreg %rbp
	subq	$32, %rsp
	.seh_stackalloc 32
	leaq	128(%rdx), %rbp
	.seh_endprologue
	testb	$1, 55(%rbp)
	jne	.LBB105_14
	jmp	.LBB105_13
.LBB105_13:
	.seh_startepilogue
	addq	$32, %rsp
	popq	%rbp
	.seh_endepilogue
	retq
.LBB105_14:
	jmp	.LBB105_13
.Lfunc_end20:
	.seh_handlerdata
	.section	.text,"xr",one_only,_ZN4core4iter6traits8iterator8Iterator8try_fold17hb02b3f3a750f36f5E,unique,106
	.seh_endproc
	.section	.xdata,"dr",associative,_ZN4core4iter6traits8iterator8Iterator8try_fold17hb02b3f3a750f36f5E,unique,20
	.p2align	2, 0x0
$cppxdata$_ZN4core4iter6traits8iterator8Iterator8try_fold17hb02b3f3a750f36f5E:
	.long	429065506
	.long	1
	.long	$stateUnwindMap$_ZN4core4iter6traits8iterator8Iterator8try_fold17hb02b3f3a750f36f5E@IMGREL
	.long	0
	.long	0
	.long	3
	.long	$ip2state$_ZN4core4iter6traits8iterator8Iterator8try_fold17hb02b3f3a750f36f5E@IMGREL
	.long	184
	.long	0
	.long	1
$stateUnwindMap$_ZN4core4iter6traits8iterator8Iterator8try_fold17hb02b3f3a750f36f5E:
	.long	-1
	.long	"?dtor$2@?0?_ZN4core4iter6traits8iterator8Iterator8try_fold17hb02b3f3a750f36f5E@4HA"@IMGREL
$ip2state$_ZN4core4iter6traits8iterator8Iterator8try_fold17hb02b3f3a750f36f5E:
	.long	.Lfunc_begin20@IMGREL
	.long	-1
	.long	.Ltmp190@IMGREL+1
	.long	0
	.long	.Ltmp199@IMGREL+1
	.long	-1
	.section	.text,"xr",one_only,_ZN4core4iter6traits8iterator8Iterator8try_fold17hb02b3f3a750f36f5E,unique,106

	.def	_ZN4core4iter6traits8iterator8Iterator8try_fold17hfdf65f516314476dE;
	.scl	3;
	.type	32;
	.endef
	.section	.text,"xr",one_only,_ZN4core4iter6traits8iterator8Iterator8try_fold17hfdf65f516314476dE,unique,107
	.p2align	4
_ZN4core4iter6traits8iterator8Iterator8try_fold17hfdf65f516314476dE:
.Lfunc_begin21:
.seh_proc _ZN4core4iter6traits8iterator8Iterator8try_fold17hfdf65f516314476dE
	.seh_handler __CxxFrameHandler3, @unwind, @except
	pushq	%rbp
	.seh_pushreg %rbp
	subq	$192, %rsp
	.seh_stackalloc 192
	leaq	128(%rsp), %rbp
	.seh_setframe %rbp, 128
	.seh_endprologue
	movq	$-2, 56(%rbp)
	movq	%rcx, -16(%rbp)
	movq	%rdx, -8(%rbp)
	movb	$1, 55(%rbp)
.LBB106_1:
.Ltmp200:
	movq	-16(%rbp), %rcx
	callq	_ZN90_$LT$core..str..iter..Split$LT$P$GT$$u20$as$u20$core..iter..traits..iterator..Iterator$GT$4next17hafebdb93131d09e0E
.Ltmp201:
	movq	%rdx, -32(%rbp)
	movq	%rax, -24(%rbp)
	jmp	.LBB106_3
.LBB106_3:
	movq	-32(%rbp), %rax
	movq	-24(%rbp), %rcx
	movq	%rcx, 16(%rbp)
	movq	%rax, 24(%rbp)
	movq	16(%rbp), %rdx
	movl	$1, %eax
	xorl	%ecx, %ecx
	cmpq	$0, %rdx
	cmoveq	%rcx, %rax
	testq	$1, %rax
	je	.LBB106_5
	movq	16(%rbp), %rdx
	movq	24(%rbp), %r8
	movb	$0, 55(%rbp)
.Ltmp204:
	leaq	-8(%rbp), %rcx
	callq	_ZN4core4iter6traits8iterator8Iterator4find5check28_$u7b$$u7b$closure$u7d$$u7d$17h06bc241c71177918E
.Ltmp205:
	movq	%rdx, -48(%rbp)
	movq	%rax, -40(%rbp)
	jmp	.LBB106_6
.LBB106_5:
	movb	$0, 55(%rbp)
.Ltmp202:
	callq	_ZN95_$LT$core..ops..control_flow..ControlFlow$LT$B$C$C$GT$$u20$as$u20$core..ops..try_trait..Try$GT$11from_output17haa20d112eb10d87dE
.Ltmp203:
	movq	%rdx, -64(%rbp)
	movq	%rax, -56(%rbp)
	jmp	.LBB106_12
.LBB106_6:
.Ltmp206:
	movq	-48(%rbp), %rdx
	movq	-40(%rbp), %rcx
	callq	_ZN95_$LT$core..ops..control_flow..ControlFlow$LT$B$C$C$GT$$u20$as$u20$core..ops..try_trait..Try$GT$6branch17h76c6a3bca5e0cdefE
.Ltmp207:
	movq	%rdx, -80(%rbp)
	movq	%rax, -72(%rbp)
	jmp	.LBB106_7
.LBB106_7:
	movq	-80(%rbp), %rax
	movq	-72(%rbp), %rcx
	movq	%rcx, 32(%rbp)
	movq	%rax, 40(%rbp)
	movq	32(%rbp), %rdx
	movl	$1, %eax
	xorl	%ecx, %ecx
	cmpq	$0, %rdx
	cmoveq	%rcx, %rax
	testq	$1, %rax
	je	.LBB106_9
	movq	32(%rbp), %rcx
	movq	40(%rbp), %rdx
.Ltmp208:
	callq	_ZN185_$LT$core..ops..control_flow..ControlFlow$LT$B$C$C$GT$$u20$as$u20$core..ops..try_trait..FromResidual$LT$core..ops..control_flow..ControlFlow$LT$B$C$core..convert..Infallible$GT$$GT$$GT$13from_residual17hfa00808986c33c83E
.Ltmp209:
	movq	%rdx, -96(%rbp)
	movq	%rax, -88(%rbp)
	jmp	.LBB106_10
.LBB106_9:
	movb	$1, 55(%rbp)
	jmp	.LBB106_1
.LBB106_10:
	movq	-96(%rbp), %rax
	movq	-88(%rbp), %rcx
	movq	%rcx, (%rbp)
	movq	%rax, 8(%rbp)
.LBB106_11:
	movq	(%rbp), %rax
	movq	8(%rbp), %rdx
	.seh_startepilogue
	addq	$192, %rsp
	popq	%rbp
	.seh_endepilogue
	retq
.LBB106_12:
	movq	-64(%rbp), %rax
	movq	-56(%rbp), %rcx
	movq	%rcx, (%rbp)
	movq	%rax, 8(%rbp)
	jmp	.LBB106_11
	.seh_handlerdata
	.long	$cppxdata$_ZN4core4iter6traits8iterator8Iterator8try_fold17hfdf65f516314476dE@IMGREL
	.section	.text,"xr",one_only,_ZN4core4iter6traits8iterator8Iterator8try_fold17hfdf65f516314476dE,unique,107
	.seh_endproc
	.def	"?dtor$2@?0?_ZN4core4iter6traits8iterator8Iterator8try_fold17hfdf65f516314476dE@4HA";
	.scl	3;
	.type	32;
	.endef
	.p2align	4
"?dtor$2@?0?_ZN4core4iter6traits8iterator8Iterator8try_fold17hfdf65f516314476dE@4HA":
.seh_proc "?dtor$2@?0?_ZN4core4iter6traits8iterator8Iterator8try_fold17hfdf65f516314476dE@4HA"
.LBB106_2:
	movq	%rdx, 16(%rsp)
	pushq	%rbp
	.seh_pushreg %rbp
	subq	$32, %rsp
	.seh_stackalloc 32
	leaq	128(%rdx), %rbp
	.seh_endprologue
	testb	$1, 55(%rbp)
	jne	.LBB106_14
	jmp	.LBB106_13
.LBB106_13:
	.seh_startepilogue
	addq	$32, %rsp
	popq	%rbp
	.seh_endepilogue
	retq
.LBB106_14:
	jmp	.LBB106_13
.Lfunc_end21:
	.seh_handlerdata
	.section	.text,"xr",one_only,_ZN4core4iter6traits8iterator8Iterator8try_fold17hfdf65f516314476dE,unique,107
	.seh_endproc
	.section	.xdata,"dr",associative,_ZN4core4iter6traits8iterator8Iterator8try_fold17hfdf65f516314476dE,unique,21
	.p2align	2, 0x0
$cppxdata$_ZN4core4iter6traits8iterator8Iterator8try_fold17hfdf65f516314476dE:
	.long	429065506
	.long	1
	.long	$stateUnwindMap$_ZN4core4iter6traits8iterator8Iterator8try_fold17hfdf65f516314476dE@IMGREL
	.long	0
	.long	0
	.long	3
	.long	$ip2state$_ZN4core4iter6traits8iterator8Iterator8try_fold17hfdf65f516314476dE@IMGREL
	.long	184
	.long	0
	.long	1
$stateUnwindMap$_ZN4core4iter6traits8iterator8Iterator8try_fold17hfdf65f516314476dE:
	.long	-1
	.long	"?dtor$2@?0?_ZN4core4iter6traits8iterator8Iterator8try_fold17hfdf65f516314476dE@4HA"@IMGREL
$ip2state$_ZN4core4iter6traits8iterator8Iterator8try_fold17hfdf65f516314476dE:
	.long	.Lfunc_begin21@IMGREL
	.long	-1
	.long	.Ltmp200@IMGREL+1
	.long	0
	.long	.Ltmp209@IMGREL+1
	.long	-1
	.section	.text,"xr",one_only,_ZN4core4iter6traits8iterator8Iterator8try_fold17hfdf65f516314476dE,unique,107

	.def	_ZN4core4iter6traits8iterator8Iterator9size_hint17h8b6567f553b71a5aE;
	.scl	3;
	.type	32;
	.endef
	.section	.text,"xr",one_only,_ZN4core4iter6traits8iterator8Iterator9size_hint17h8b6567f553b71a5aE,unique,108
	.p2align	4
_ZN4core4iter6traits8iterator8Iterator9size_hint17h8b6567f553b71a5aE:
	movq	%rcx, %rax
	movq	$0, (%rcx)
	movq	anon.aea64e3d4c527d9b67f1a42df9b9b7d7.1(%rip), %r8
	movq	anon.aea64e3d4c527d9b67f1a42df9b9b7d7.1+8(%rip), %rdx
	movq	%r8, 8(%rcx)
	movq	%rdx, 16(%rcx)
	retq

	.def	_ZN4core4iter8adapters3map12map_try_fold28_$u7b$$u7b$closure$u7d$$u7d$17hb76dcbb1880e5f87E;
	.scl	3;
	.type	32;
	.endef
	.section	.text,"xr",one_only,_ZN4core4iter8adapters3map12map_try_fold28_$u7b$$u7b$closure$u7d$$u7d$17hb76dcbb1880e5f87E,unique,109
	.p2align	4
_ZN4core4iter8adapters3map12map_try_fold28_$u7b$$u7b$closure$u7d$$u7d$17hb76dcbb1880e5f87E:
.Lfunc_begin22:
.seh_proc _ZN4core4iter8adapters3map12map_try_fold28_$u7b$$u7b$closure$u7d$$u7d$17hb76dcbb1880e5f87E
	.seh_handler __CxxFrameHandler3, @unwind, @except
	pushq	%rbp
	.seh_pushreg %rbp
	subq	$96, %rsp
	.seh_stackalloc 96
	leaq	96(%rsp), %rbp
	.seh_setframe %rbp, 96
	.seh_endprologue
	movq	$-2, -8(%rbp)
	movq	%r8, -48(%rbp)
	movq	%rdx, %rax
	movq	-48(%rbp), %rdx
	movq	%rax, -40(%rbp)
	movq	%rcx, %rax
	addq	$8, %rax
	movq	%rax, -32(%rbp)
	movb	$1, -9(%rbp)
	movq	(%rcx), %rcx
.Ltmp210:
	callq	_ZN5alloc3str17join_generic_copy28_$u7b$$u7b$closure$u7d$$u7d$28_$u7b$$u7b$closure$u7d$$u7d$17h582956da6b644700E
.Ltmp211:
	movq	%rax, -24(%rbp)
	jmp	.LBB108_2
.LBB108_2:
	movq	-24(%rbp), %r8
	movq	-40(%rbp), %rdx
	movq	-32(%rbp), %rcx
	movb	$0, -9(%rbp)
.Ltmp212:
	callq	_ZN4core3ops8function5FnMut8call_mut17hf36a464b6b84dcb1E
.Ltmp213:
	movq	%rdx, -64(%rbp)
	movq	%rax, -56(%rbp)
	jmp	.LBB108_3
.LBB108_3:
	movq	-64(%rbp), %rdx
	movq	-56(%rbp), %rax
	.seh_startepilogue
	addq	$96, %rsp
	popq	%rbp
	.seh_endepilogue
	retq
	.seh_handlerdata
	.long	$cppxdata$_ZN4core4iter8adapters3map12map_try_fold28_$u7b$$u7b$closure$u7d$$u7d$17hb76dcbb1880e5f87E@IMGREL
	.section	.text,"xr",one_only,_ZN4core4iter8adapters3map12map_try_fold28_$u7b$$u7b$closure$u7d$$u7d$17hb76dcbb1880e5f87E,unique,109
	.seh_endproc
	.def	"?dtor$1@?0?_ZN4core4iter8adapters3map12map_try_fold28_$u7b$$u7b$closure$u7d$$u7d$17hb76dcbb1880e5f87E@4HA";
	.scl	3;
	.type	32;
	.endef
	.p2align	4
"?dtor$1@?0?_ZN4core4iter8adapters3map12map_try_fold28_$u7b$$u7b$closure$u7d$$u7d$17hb76dcbb1880e5f87E@4HA":
.seh_proc "?dtor$1@?0?_ZN4core4iter8adapters3map12map_try_fold28_$u7b$$u7b$closure$u7d$$u7d$17hb76dcbb1880e5f87E@4HA"
.LBB108_1:
	movq	%rdx, 16(%rsp)
	pushq	%rbp
	.seh_pushreg %rbp
	subq	$32, %rsp
	.seh_stackalloc 32
	leaq	96(%rdx), %rbp
	.seh_endprologue
	testb	$1, -9(%rbp)
	jne	.LBB108_5
	jmp	.LBB108_4
.LBB108_4:
	.seh_startepilogue
	addq	$32, %rsp
	popq	%rbp
	.seh_endepilogue
	retq
.LBB108_5:
	jmp	.LBB108_4
.Lfunc_end22:
	.seh_handlerdata
	.section	.text,"xr",one_only,_ZN4core4iter8adapters3map12map_try_fold28_$u7b$$u7b$closure$u7d$$u7d$17hb76dcbb1880e5f87E,unique,109
	.seh_endproc
	.section	.xdata,"dr",associative,_ZN4core4iter8adapters3map12map_try_fold28_$u7b$$u7b$closure$u7d$$u7d$17hb76dcbb1880e5f87E,unique,22
	.p2align	2, 0x0
$cppxdata$_ZN4core4iter8adapters3map12map_try_fold28_$u7b$$u7b$closure$u7d$$u7d$17hb76dcbb1880e5f87E:
	.long	429065506
	.long	1
	.long	$stateUnwindMap$_ZN4core4iter8adapters3map12map_try_fold28_$u7b$$u7b$closure$u7d$$u7d$17hb76dcbb1880e5f87E@IMGREL
	.long	0
	.long	0
	.long	3
	.long	$ip2state$_ZN4core4iter8adapters3map12map_try_fold28_$u7b$$u7b$closure$u7d$$u7d$17hb76dcbb1880e5f87E@IMGREL
	.long	88
	.long	0
	.long	1
$stateUnwindMap$_ZN4core4iter8adapters3map12map_try_fold28_$u7b$$u7b$closure$u7d$$u7d$17hb76dcbb1880e5f87E:
	.long	-1
	.long	"?dtor$1@?0?_ZN4core4iter8adapters3map12map_try_fold28_$u7b$$u7b$closure$u7d$$u7d$17hb76dcbb1880e5f87E@4HA"@IMGREL
$ip2state$_ZN4core4iter8adapters3map12map_try_fold28_$u7b$$u7b$closure$u7d$$u7d$17hb76dcbb1880e5f87E:
	.long	.Lfunc_begin22@IMGREL
	.long	-1
	.long	.Ltmp210@IMGREL+1
	.long	0
	.long	.Ltmp213@IMGREL+1
	.long	-1
	.section	.text,"xr",one_only,_ZN4core4iter8adapters3map12map_try_fold28_$u7b$$u7b$closure$u7d$$u7d$17hb76dcbb1880e5f87E,unique,109

	.def	_ZN4core4iter8adapters3map12map_try_fold28_$u7b$$u7b$closure$u7d$$u7d$17hfc2100e890a45e85E;
	.scl	3;
	.type	32;
	.endef
	.section	.text,"xr",one_only,_ZN4core4iter8adapters3map12map_try_fold28_$u7b$$u7b$closure$u7d$$u7d$17hfc2100e890a45e85E,unique,110
	.p2align	4
_ZN4core4iter8adapters3map12map_try_fold28_$u7b$$u7b$closure$u7d$$u7d$17hfc2100e890a45e85E:
.Lfunc_begin23:
.seh_proc _ZN4core4iter8adapters3map12map_try_fold28_$u7b$$u7b$closure$u7d$$u7d$17hfc2100e890a45e85E
	.seh_handler __CxxFrameHandler3, @unwind, @except
	pushq	%rbp
	.seh_pushreg %rbp
	subq	$96, %rsp
	.seh_stackalloc 96
	leaq	96(%rsp), %rbp
	.seh_setframe %rbp, 96
	.seh_endprologue
	movq	$-2, -8(%rbp)
	movq	%r8, -48(%rbp)
	movq	%rdx, %rax
	movq	-48(%rbp), %rdx
	movq	%rax, -40(%rbp)
	movq	%rcx, %rax
	addq	$8, %rax
	movq	%rax, -32(%rbp)
	movb	$1, -9(%rbp)
	movq	(%rcx), %rcx
.Ltmp214:
	callq	_ZN5alloc3str17join_generic_copy28_$u7b$$u7b$closure$u7d$$u7d$28_$u7b$$u7b$closure$u7d$$u7d$17he837d47a421a9b18E
.Ltmp215:
	movq	%rax, -24(%rbp)
	jmp	.LBB109_2
.LBB109_2:
	movq	-24(%rbp), %r8
	movq	-40(%rbp), %rdx
	movq	-32(%rbp), %rcx
	movb	$0, -9(%rbp)
.Ltmp216:
	callq	_ZN4core3ops8function5FnMut8call_mut17hf36a464b6b84dcb1E
.Ltmp217:
	movq	%rdx, -64(%rbp)
	movq	%rax, -56(%rbp)
	jmp	.LBB109_3
.LBB109_3:
	movq	-64(%rbp), %rdx
	movq	-56(%rbp), %rax
	.seh_startepilogue
	addq	$96, %rsp
	popq	%rbp
	.seh_endepilogue
	retq
	.seh_handlerdata
	.long	$cppxdata$_ZN4core4iter8adapters3map12map_try_fold28_$u7b$$u7b$closure$u7d$$u7d$17hfc2100e890a45e85E@IMGREL
	.section	.text,"xr",one_only,_ZN4core4iter8adapters3map12map_try_fold28_$u7b$$u7b$closure$u7d$$u7d$17hfc2100e890a45e85E,unique,110
	.seh_endproc
	.def	"?dtor$1@?0?_ZN4core4iter8adapters3map12map_try_fold28_$u7b$$u7b$closure$u7d$$u7d$17hfc2100e890a45e85E@4HA";
	.scl	3;
	.type	32;
	.endef
	.p2align	4
"?dtor$1@?0?_ZN4core4iter8adapters3map12map_try_fold28_$u7b$$u7b$closure$u7d$$u7d$17hfc2100e890a45e85E@4HA":
.seh_proc "?dtor$1@?0?_ZN4core4iter8adapters3map12map_try_fold28_$u7b$$u7b$closure$u7d$$u7d$17hfc2100e890a45e85E@4HA"
.LBB109_1:
	movq	%rdx, 16(%rsp)
	pushq	%rbp
	.seh_pushreg %rbp
	subq	$32, %rsp
	.seh_stackalloc 32
	leaq	96(%rdx), %rbp
	.seh_endprologue
	testb	$1, -9(%rbp)
	jne	.LBB109_5
	jmp	.LBB109_4
.LBB109_4:
	.seh_startepilogue
	addq	$32, %rsp
	popq	%rbp
	.seh_endepilogue
	retq
.LBB109_5:
	jmp	.LBB109_4
.Lfunc_end23:
	.seh_handlerdata
	.section	.text,"xr",one_only,_ZN4core4iter8adapters3map12map_try_fold28_$u7b$$u7b$closure$u7d$$u7d$17hfc2100e890a45e85E,unique,110
	.seh_endproc
	.section	.xdata,"dr",associative,_ZN4core4iter8adapters3map12map_try_fold28_$u7b$$u7b$closure$u7d$$u7d$17hfc2100e890a45e85E,unique,23
	.p2align	2, 0x0
$cppxdata$_ZN4core4iter8adapters3map12map_try_fold28_$u7b$$u7b$closure$u7d$$u7d$17hfc2100e890a45e85E:
	.long	429065506
	.long	1
	.long	$stateUnwindMap$_ZN4core4iter8adapters3map12map_try_fold28_$u7b$$u7b$closure$u7d$$u7d$17hfc2100e890a45e85E@IMGREL
	.long	0
	.long	0
	.long	3
	.long	$ip2state$_ZN4core4iter8adapters3map12map_try_fold28_$u7b$$u7b$closure$u7d$$u7d$17hfc2100e890a45e85E@IMGREL
	.long	88
	.long	0
	.long	1
$stateUnwindMap$_ZN4core4iter8adapters3map12map_try_fold28_$u7b$$u7b$closure$u7d$$u7d$17hfc2100e890a45e85E:
	.long	-1
	.long	"?dtor$1@?0?_ZN4core4iter8adapters3map12map_try_fold28_$u7b$$u7b$closure$u7d$$u7d$17hfc2100e890a45e85E@4HA"@IMGREL
$ip2state$_ZN4core4iter8adapters3map12map_try_fold28_$u7b$$u7b$closure$u7d$$u7d$17hfc2100e890a45e85E:
	.long	.Lfunc_begin23@IMGREL
	.long	-1
	.long	.Ltmp214@IMGREL+1
	.long	0
	.long	.Ltmp217@IMGREL+1
	.long	-1
	.section	.text,"xr",one_only,_ZN4core4iter8adapters3map12map_try_fold28_$u7b$$u7b$closure$u7d$$u7d$17hfc2100e890a45e85E,unique,110

	.def	_ZN4core5alloc6layout6Layout25from_size_align_unchecked18precondition_check17hcbd3d1dcec12c414E;
	.scl	3;
	.type	32;
	.endef
	.section	.text,"xr",one_only,_ZN4core5alloc6layout6Layout25from_size_align_unchecked18precondition_check17hcbd3d1dcec12c414E,unique,111
	.p2align	4
_ZN4core5alloc6layout6Layout25from_size_align_unchecked18precondition_check17hcbd3d1dcec12c414E:
.Lfunc_begin24:
.seh_proc _ZN4core5alloc6layout6Layout25from_size_align_unchecked18precondition_check17hcbd3d1dcec12c414E
	.seh_handler __CxxFrameHandler3, @unwind, @except
	pushq	%rbp
	.seh_pushreg %rbp
	subq	$128, %rsp
	.seh_stackalloc 128
	leaq	128(%rsp), %rbp
	.seh_setframe %rbp, 128
	.seh_endprologue
	movq	$-2, -8(%rbp)
	movq	%r8, -88(%rbp)
.Ltmp218:
	callq	_ZN4core5alloc6layout6Layout19is_size_align_valid17h6a0047f205e54855E
.Ltmp219:
	movb	%al, -73(%rbp)
	jmp	.LBB110_2
.LBB110_2:
	movb	-73(%rbp), %al
	testb	$1, %al
	jne	.LBB110_4
	jmp	.LBB110_3
.LBB110_3:
	movq	-88(%rbp), %r8
	leaq	anon.aea64e3d4c527d9b67f1a42df9b9b7d7.85(%rip), %rax
	movq	%rax, -24(%rbp)
	movq	$281, -16(%rbp)
	leaq	-24(%rbp), %rax
	movq	%rax, -72(%rbp)
	movq	$1, -64(%rbp)
	movq	$0, -40(%rbp)
	movq	%rax, -32(%rbp)
	movl	$8, %eax
	movq	%rax, -56(%rbp)
	movq	$0, -48(%rbp)
	leaq	-72(%rbp), %rcx
	xorl	%edx, %edx
	callq	_ZN4core9panicking18panic_nounwind_fmt17h93b15706b0f16961E
.LBB110_4:
	nop
	.seh_startepilogue
	addq	$128, %rsp
	popq	%rbp
	.seh_endepilogue
	retq
	.seh_handlerdata
	.long	$cppxdata$_ZN4core5alloc6layout6Layout25from_size_align_unchecked18precondition_check17hcbd3d1dcec12c414E@IMGREL
	.section	.text,"xr",one_only,_ZN4core5alloc6layout6Layout25from_size_align_unchecked18precondition_check17hcbd3d1dcec12c414E,unique,111
	.seh_endproc
	.def	"?catch$1@?0?_ZN4core5alloc6layout6Layout25from_size_align_unchecked18precondition_check17hcbd3d1dcec12c414E@4HA";
	.scl	3;
	.type	32;
	.endef
	.p2align	4
"?catch$1@?0?_ZN4core5alloc6layout6Layout25from_size_align_unchecked18precondition_check17hcbd3d1dcec12c414E@4HA":
.seh_proc "?catch$1@?0?_ZN4core5alloc6layout6Layout25from_size_align_unchecked18precondition_check17hcbd3d1dcec12c414E@4HA"
	.seh_handler __CxxFrameHandler3, @unwind, @except
.LBB110_1:
	movq	%rdx, 16(%rsp)
	pushq	%rbp
	.seh_pushreg %rbp
	subq	$32, %rsp
	.seh_stackalloc 32
	leaq	128(%rdx), %rbp
	.seh_endprologue
	callq	_ZN4core9panicking19panic_cannot_unwind17h4a26a134c4adcb2bE
	int3
.Lfunc_end24:
	.seh_handlerdata
	.long	$cppxdata$_ZN4core5alloc6layout6Layout25from_size_align_unchecked18precondition_check17hcbd3d1dcec12c414E@IMGREL
	.section	.text,"xr",one_only,_ZN4core5alloc6layout6Layout25from_size_align_unchecked18precondition_check17hcbd3d1dcec12c414E,unique,111
	.seh_endproc
	.section	.xdata,"dr",associative,_ZN4core5alloc6layout6Layout25from_size_align_unchecked18precondition_check17hcbd3d1dcec12c414E,unique,24
	.p2align	2, 0x0
$cppxdata$_ZN4core5alloc6layout6Layout25from_size_align_unchecked18precondition_check17hcbd3d1dcec12c414E:
	.long	429065506
	.long	2
	.long	$stateUnwindMap$_ZN4core5alloc6layout6Layout25from_size_align_unchecked18precondition_check17hcbd3d1dcec12c414E@IMGREL
	.long	1
	.long	$tryMap$_ZN4core5alloc6layout6Layout25from_size_align_unchecked18precondition_check17hcbd3d1dcec12c414E@IMGREL
	.long	4
	.long	$ip2state$_ZN4core5alloc6layout6Layout25from_size_align_unchecked18precondition_check17hcbd3d1dcec12c414E@IMGREL
	.long	120
	.long	0
	.long	1
$stateUnwindMap$_ZN4core5alloc6layout6Layout25from_size_align_unchecked18precondition_check17hcbd3d1dcec12c414E:
	.long	-1
	.long	0
	.long	-1
	.long	0
$tryMap$_ZN4core5alloc6layout6Layout25from_size_align_unchecked18precondition_check17hcbd3d1dcec12c414E:
	.long	0
	.long	0
	.long	1
	.long	1
	.long	$handlerMap$0$_ZN4core5alloc6layout6Layout25from_size_align_unchecked18precondition_check17hcbd3d1dcec12c414E@IMGREL
$handlerMap$0$_ZN4core5alloc6layout6Layout25from_size_align_unchecked18precondition_check17hcbd3d1dcec12c414E:
	.long	64
	.long	0
	.long	0
	.long	"?catch$1@?0?_ZN4core5alloc6layout6Layout25from_size_align_unchecked18precondition_check17hcbd3d1dcec12c414E@4HA"@IMGREL
	.long	56
$ip2state$_ZN4core5alloc6layout6Layout25from_size_align_unchecked18precondition_check17hcbd3d1dcec12c414E:
	.long	.Lfunc_begin24@IMGREL
	.long	-1
	.long	.Ltmp218@IMGREL+1
	.long	0
	.long	.Ltmp219@IMGREL+1
	.long	-1
	.long	"?catch$1@?0?_ZN4core5alloc6layout6Layout25from_size_align_unchecked18precondition_check17hcbd3d1dcec12c414E@4HA"@IMGREL
	.long	1
	.section	.text,"xr",one_only,_ZN4core5alloc6layout6Layout25from_size_align_unchecked18precondition_check17hcbd3d1dcec12c414E,unique,111

	.def	_ZN4core5alloc6layout6Layout6repeat17hf053729ff29334abE;
	.scl	3;
	.type	32;
	.endef
	.section	.text,"xr",one_only,_ZN4core5alloc6layout6Layout6repeat17hf053729ff29334abE,unique,112
	.p2align	4
_ZN4core5alloc6layout6Layout6repeat17hf053729ff29334abE:
.seh_proc _ZN4core5alloc6layout6Layout6repeat17hf053729ff29334abE
	subq	$120, %rsp
	.seh_stackalloc 120
	.seh_endprologue
	movq	%r8, 40(%rsp)
	movq	%rcx, 48(%rsp)
	movq	%rcx, 56(%rsp)
	movq	(%rdx), %rcx
	movq	%rcx, 64(%rsp)
	subq	$1, %rcx
	movq	%rcx, %rax
	addq	8(%rdx), %rax
	xorq	$-1, %rcx
	andq	%rcx, %rax
	movq	%rax, 72(%rsp)
	movq	64(%rsp), %rdx
	movq	72(%rsp), %rcx
	leaq	anon.aea64e3d4c527d9b67f1a42df9b9b7d7.87(%rip), %r8
	callq	_ZN4core5alloc6layout6Layout25from_size_align_unchecked18precondition_check17hcbd3d1dcec12c414E
	movq	40(%rsp), %rcx
	movq	72(%rsp), %rax
	mulq	%rcx
	movq	%rax, 32(%rsp)
	seto	%al
	jo	.LBB111_4
	movq	32(%rsp), %rax
	movq	64(%rsp), %rdx
	movabsq	$-9223372036854775808, %rcx
	subq	%rdx, %rcx
	cmpq	%rcx, %rax
	ja	.LBB111_6
	jmp	.LBB111_5
.LBB111_4:
	jmp	.LBB111_8
.LBB111_5:
	movq	48(%rsp), %rax
	movq	72(%rsp), %rcx
	movq	32(%rsp), %rdx
	movq	64(%rsp), %r8
	movq	%r8, 80(%rsp)
	movq	%rdx, 88(%rsp)
	movq	80(%rsp), %r8
	movq	88(%rsp), %rdx
	movq	%r8, 96(%rsp)
	movq	%rdx, 104(%rsp)
	movq	%rcx, 112(%rsp)
	movq	96(%rsp), %rcx
	movq	%rcx, (%rax)
	movq	104(%rsp), %rcx
	movq	%rcx, 8(%rax)
	movq	112(%rsp), %rcx
	movq	%rcx, 16(%rax)
	jmp	.LBB111_7
.LBB111_6:
	jmp	.LBB111_8
.LBB111_7:
	movq	56(%rsp), %rax
	.seh_startepilogue
	addq	$120, %rsp
	.seh_endepilogue
	retq
.LBB111_8:
	movq	48(%rsp), %rax
	movq	$0, (%rax)
	jmp	.LBB111_7
	.seh_endproc

	.def	_ZN4core5slice29_$LT$impl$u20$$u5b$T$u5d$$GT$15copy_from_slice17hf76753812d4e8de1E;
	.scl	3;
	.type	32;
	.endef
	.section	.text,"xr",one_only,_ZN4core5slice29_$LT$impl$u20$$u5b$T$u5d$$GT$15copy_from_slice17hf76753812d4e8de1E,unique,113
	.p2align	4
_ZN4core5slice29_$LT$impl$u20$$u5b$T$u5d$$GT$15copy_from_slice17hf76753812d4e8de1E:
.seh_proc _ZN4core5slice29_$LT$impl$u20$$u5b$T$u5d$$GT$15copy_from_slice17hf76753812d4e8de1E
	subq	$88, %rsp
	.seh_stackalloc 88
	.seh_endprologue
	movq	%r9, 48(%rsp)
	movq	%r8, 56(%rsp)
	movq	%rdx, 64(%rsp)
	movq	%rcx, 72(%rsp)
	movq	128(%rsp), %rax
	movq	%rax, 80(%rsp)
	cmpq	%r9, %rdx
	jne	.LBB112_2
	jmp	.LBB112_3
.LBB112_2:
	movq	80(%rsp), %r8
	movq	48(%rsp), %rdx
	movq	64(%rsp), %rcx
	callq	_ZN4core5slice29_$LT$impl$u20$$u5b$T$u5d$$GT$15copy_from_slice17len_mismatch_fail17h9248d10528486128E
.LBB112_3:
	movq	64(%rsp), %r10
	movq	72(%rsp), %rdx
	movq	56(%rsp), %rcx
	movl	$1, %r9d
	leaq	anon.aea64e3d4c527d9b67f1a42df9b9b7d7.89(%rip), %rax
	movq	%r9, %r8
	movq	%r10, 32(%rsp)
	movq	%rax, 40(%rsp)
	callq	_ZN4core3ptr19copy_nonoverlapping18precondition_check17he4b829896f2aefabE
	movq	56(%rsp), %rdx
	movq	72(%rsp), %rcx
	movq	64(%rsp), %r8
	shlq	$0, %r8
	callq	memcpy
	nop
	.seh_startepilogue
	addq	$88, %rsp
	.seh_endepilogue
	retq
	.seh_endproc

	.def	_ZN4core5slice29_$LT$impl$u20$$u5b$T$u5d$$GT$22split_at_mut_unchecked17h3c30c4b8c592eb2dE;
	.scl	3;
	.type	32;
	.endef
	.section	.text,"xr",one_only,_ZN4core5slice29_$LT$impl$u20$$u5b$T$u5d$$GT$22split_at_mut_unchecked17h3c30c4b8c592eb2dE,unique,114
	.p2align	4
_ZN4core5slice29_$LT$impl$u20$$u5b$T$u5d$$GT$22split_at_mut_unchecked17h3c30c4b8c592eb2dE:
.seh_proc _ZN4core5slice29_$LT$impl$u20$$u5b$T$u5d$$GT$22split_at_mut_unchecked17h3c30c4b8c592eb2dE
	subq	$120, %rsp
	.seh_stackalloc 120
	.seh_endprologue
	movq	%r9, 40(%rsp)
	movq	%r8, 48(%rsp)
	movq	%rdx, 56(%rsp)
	movq	%rcx, 64(%rsp)
	movq	%rcx, 72(%rsp)
	movq	160(%rsp), %rax
	movq	%rax, 80(%rsp)
	movq	80(%rsp), %r8
	movq	48(%rsp), %rdx
	movq	40(%rsp), %rcx
	callq	_ZN4core5slice29_$LT$impl$u20$$u5b$T$u5d$$GT$22split_at_mut_unchecked18precondition_check17h1237eabf84153a25E
	movq	40(%rsp), %r9
	movq	56(%rsp), %rcx
	movq	80(%rsp), %rax
	movl	$1, %r8d
	movq	%r8, %rdx
	movq	%rax, 32(%rsp)
	callq	_ZN4core5slice3raw18from_raw_parts_mut18precondition_check17h056012ccdafb90baE
	movq	56(%rsp), %rdx
	movq	48(%rsp), %rax
	movq	40(%rsp), %rcx
	movq	%rdx, 88(%rsp)
	movq	%rcx, 96(%rsp)
	addq	%rcx, %rdx
	movq	%rdx, 104(%rsp)
	subq	%rcx, %rax
	movq	%rax, 112(%rsp)
	movq	80(%rsp), %rax
	movq	104(%rsp), %rcx
	movq	112(%rsp), %r9
	movl	$1, %r8d
	movq	%r8, %rdx
	movq	%rax, 32(%rsp)
	callq	_ZN4core5slice3raw18from_raw_parts_mut18precondition_check17h056012ccdafb90baE
	movq	72(%rsp), %rax
	movq	64(%rsp), %rcx
	movq	104(%rsp), %r8
	movq	112(%rsp), %rdx
	movq	88(%rsp), %r10
	movq	96(%rsp), %r9
	movq	%r10, (%rcx)
	movq	%r9, 8(%rcx)
	movq	%r8, 16(%rcx)
	movq	%rdx, 24(%rcx)
	.seh_startepilogue
	addq	$120, %rsp
	.seh_endepilogue
	retq
	.seh_endproc

	.def	_ZN4core5slice29_$LT$impl$u20$$u5b$T$u5d$$GT$22split_at_mut_unchecked18precondition_check17h1237eabf84153a25E;
	.scl	3;
	.type	32;
	.endef
	.section	.text,"xr",one_only,_ZN4core5slice29_$LT$impl$u20$$u5b$T$u5d$$GT$22split_at_mut_unchecked18precondition_check17h1237eabf84153a25E,unique,115
	.p2align	4
_ZN4core5slice29_$LT$impl$u20$$u5b$T$u5d$$GT$22split_at_mut_unchecked18precondition_check17h1237eabf84153a25E:
.seh_proc _ZN4core5slice29_$LT$impl$u20$$u5b$T$u5d$$GT$22split_at_mut_unchecked18precondition_check17h1237eabf84153a25E
	subq	$104, %rsp
	.seh_stackalloc 104
	.seh_endprologue
	movq	%r8, 32(%rsp)
	cmpq	%rdx, %rcx
	jbe	.LBB114_2
	movq	32(%rsp), %r8
	leaq	anon.aea64e3d4c527d9b67f1a42df9b9b7d7.90(%rip), %rax
	movq	%rax, 88(%rsp)
	movq	$221, 96(%rsp)
	leaq	88(%rsp), %rax
	movq	%rax, 40(%rsp)
	movq	$1, 48(%rsp)
	movq	anon.aea64e3d4c527d9b67f1a42df9b9b7d7.1(%rip), %rcx
	movq	anon.aea64e3d4c527d9b67f1a42df9b9b7d7.1+8(%rip), %rax
	movq	%rcx, 72(%rsp)
	movq	%rax, 80(%rsp)
	movl	$8, %eax
	movq	%rax, 56(%rsp)
	movq	$0, 64(%rsp)
	leaq	40(%rsp), %rcx
	xorl	%edx, %edx
	callq	_ZN4core9panicking18panic_nounwind_fmt17h93b15706b0f16961E
.LBB114_2:
	nop
	.seh_startepilogue
	addq	$104, %rsp
	.seh_endepilogue
	retq
	.seh_endproc

	.def	_ZN4core5slice3raw14from_raw_parts18precondition_check17h88512fbb981fe93cE;
	.scl	3;
	.type	32;
	.endef
	.section	.text,"xr",one_only,_ZN4core5slice3raw14from_raw_parts18precondition_check17h88512fbb981fe93cE,unique,116
	.p2align	4
_ZN4core5slice3raw14from_raw_parts18precondition_check17h88512fbb981fe93cE:
.Lfunc_begin25:
.seh_proc _ZN4core5slice3raw14from_raw_parts18precondition_check17h88512fbb981fe93cE
	.seh_handler __CxxFrameHandler3, @unwind, @except
	pushq	%rbp
	.seh_pushreg %rbp
	subq	$224, %rsp
	.seh_stackalloc 224
	leaq	128(%rsp), %rbp
	.seh_setframe %rbp, 128
	.seh_endprologue
	movq	$-2, 88(%rbp)
	movq	%r9, -80(%rbp)
	movq	%r8, -64(%rbp)
	movq	%rdx, -72(%rbp)
	movq	%rcx, %rax
	movq	-64(%rbp), %rcx
	movq	%rax, -56(%rbp)
	movq	144(%rbp), %rax
	movq	%rax, -48(%rbp)
	movq	%rcx, %rax
	shrq	%rax
	movabsq	$6148914691236517205, %rdx
	andq	%rdx, %rax
	subq	%rax, %rcx
	movabsq	$3689348814741910323, %rdx
	movq	%rcx, %rax
	andq	%rdx, %rax
	shrq	$2, %rcx
	andq	%rdx, %rcx
	addq	%rcx, %rax
	movq	%rax, %rcx
	shrq	$4, %rcx
	addq	%rcx, %rax
	movabsq	$1085102592571150095, %rcx
	andq	%rcx, %rax
	movabsq	$72340172838076673, %rcx
	imulq	%rcx, %rax
	shrq	$56, %rax
	movl	%eax, 84(%rbp)
	cmpl	$1, 84(%rbp)
	jne	.LBB115_2
	movq	-56(%rbp), %rax
	movq	-64(%rbp), %rcx
	subq	$1, %rcx
	andq	%rcx, %rax
	cmpq	$0, %rax
	je	.LBB115_3
	jmp	.LBB115_4
.LBB115_2:
	leaq	anon.aea64e3d4c527d9b67f1a42df9b9b7d7.55(%rip), %rax
	movq	%rax, 24(%rbp)
	movq	$1, 32(%rbp)
	movq	$0, 56(%rbp)
	movq	$8, 40(%rbp)
	movq	$0, 48(%rbp)
.Ltmp220:
	leaq	anon.aea64e3d4c527d9b67f1a42df9b9b7d7.57(%rip), %rdx
	leaq	24(%rbp), %rcx
	callq	_ZN4core9panicking9panic_fmt17hdecc33e36b6de7c8E
.Ltmp221:
	jmp	.LBB115_13
.LBB115_3:
	movq	-56(%rbp), %rax
	cmpq	$0, %rax
	sete	%al
	xorb	$-1, %al
	testb	$1, %al
	jne	.LBB115_6
	jmp	.LBB115_5
.LBB115_4:
	jmp	.LBB115_5
.LBB115_5:
	jmp	.LBB115_16
.LBB115_6:
	movq	-72(%rbp), %rax
	cmpq	$0, %rax
	sete	%cl
	movb	%cl, -81(%rbp)
	cmpq	$0, %rax
	jne	.LBB115_8
	movq	$-1, 72(%rbp)
	jmp	.LBB115_9
.LBB115_8:
	movb	-81(%rbp), %al
	testb	$1, %al
	jne	.LBB115_11
	jmp	.LBB115_10
.LBB115_9:
	movq	-80(%rbp), %rax
	cmpq	72(%rbp), %rax
	jbe	.LBB115_15
	jmp	.LBB115_14
.LBB115_10:
	movq	-72(%rbp), %rcx
	movabsq	$9223372036854775807, %rax
	xorl	%edx, %edx
	divq	%rcx
	movq	%rax, 72(%rbp)
	jmp	.LBB115_9
.LBB115_11:
.Ltmp222:
	leaq	anon.aea64e3d4c527d9b67f1a42df9b9b7d7.92(%rip), %rcx
	callq	_ZN4core9panicking11panic_const23panic_const_div_by_zero17hdc7eae94e1274a2aE
.Ltmp223:
	jmp	.LBB115_13
.LBB115_13:
	ud2
.LBB115_14:
	jmp	.LBB115_16
.LBB115_15:
	.seh_startepilogue
	addq	$224, %rsp
	popq	%rbp
	.seh_endepilogue
	retq
.LBB115_16:
	movq	-48(%rbp), %r8
	leaq	anon.aea64e3d4c527d9b67f1a42df9b9b7d7.93(%rip), %rax
	movq	%rax, 8(%rbp)
	movq	$279, 16(%rbp)
	leaq	8(%rbp), %rax
	movq	%rax, -40(%rbp)
	movq	$1, -32(%rbp)
	movq	$0, -8(%rbp)
	movq	%rax, (%rbp)
	movl	$8, %eax
	movq	%rax, -24(%rbp)
	movq	$0, -16(%rbp)
	leaq	-40(%rbp), %rcx
	xorl	%edx, %edx
	callq	_ZN4core9panicking18panic_nounwind_fmt17h93b15706b0f16961E
	int3
	.seh_handlerdata
	.long	$cppxdata$_ZN4core5slice3raw14from_raw_parts18precondition_check17h88512fbb981fe93cE@IMGREL
	.section	.text,"xr",one_only,_ZN4core5slice3raw14from_raw_parts18precondition_check17h88512fbb981fe93cE,unique,116
	.seh_endproc
	.def	"?catch$12@?0?_ZN4core5slice3raw14from_raw_parts18precondition_check17h88512fbb981fe93cE@4HA";
	.scl	3;
	.type	32;
	.endef
	.p2align	4
"?catch$12@?0?_ZN4core5slice3raw14from_raw_parts18precondition_check17h88512fbb981fe93cE@4HA":
.seh_proc "?catch$12@?0?_ZN4core5slice3raw14from_raw_parts18precondition_check17h88512fbb981fe93cE@4HA"
	.seh_handler __CxxFrameHandler3, @unwind, @except
.LBB115_12:
	movq	%rdx, 16(%rsp)
	pushq	%rbp
	.seh_pushreg %rbp
	subq	$32, %rsp
	.seh_stackalloc 32
	leaq	128(%rdx), %rbp
	.seh_endprologue
	callq	_ZN4core9panicking19panic_cannot_unwind17h4a26a134c4adcb2bE
	int3
.Lfunc_end25:
	.seh_handlerdata
	.long	$cppxdata$_ZN4core5slice3raw14from_raw_parts18precondition_check17h88512fbb981fe93cE@IMGREL
	.section	.text,"xr",one_only,_ZN4core5slice3raw14from_raw_parts18precondition_check17h88512fbb981fe93cE,unique,116
	.seh_endproc
	.section	.xdata,"dr",associative,_ZN4core5slice3raw14from_raw_parts18precondition_check17h88512fbb981fe93cE,unique,25
	.p2align	2, 0x0
$cppxdata$_ZN4core5slice3raw14from_raw_parts18precondition_check17h88512fbb981fe93cE:
	.long	429065506
	.long	2
	.long	$stateUnwindMap$_ZN4core5slice3raw14from_raw_parts18precondition_check17h88512fbb981fe93cE@IMGREL
	.long	1
	.long	$tryMap$_ZN4core5slice3raw14from_raw_parts18precondition_check17h88512fbb981fe93cE@IMGREL
	.long	4
	.long	$ip2state$_ZN4core5slice3raw14from_raw_parts18precondition_check17h88512fbb981fe93cE@IMGREL
	.long	216
	.long	0
	.long	1
$stateUnwindMap$_ZN4core5slice3raw14from_raw_parts18precondition_check17h88512fbb981fe93cE:
	.long	-1
	.long	0
	.long	-1
	.long	0
$tryMap$_ZN4core5slice3raw14from_raw_parts18precondition_check17h88512fbb981fe93cE:
	.long	0
	.long	0
	.long	1
	.long	1
	.long	$handlerMap$0$_ZN4core5slice3raw14from_raw_parts18precondition_check17h88512fbb981fe93cE@IMGREL
$handlerMap$0$_ZN4core5slice3raw14from_raw_parts18precondition_check17h88512fbb981fe93cE:
	.long	64
	.long	0
	.long	0
	.long	"?catch$12@?0?_ZN4core5slice3raw14from_raw_parts18precondition_check17h88512fbb981fe93cE@4HA"@IMGREL
	.long	56
$ip2state$_ZN4core5slice3raw14from_raw_parts18precondition_check17h88512fbb981fe93cE:
	.long	.Lfunc_begin25@IMGREL
	.long	-1
	.long	.Ltmp220@IMGREL+1
	.long	0
	.long	.Ltmp223@IMGREL+1
	.long	-1
	.long	"?catch$12@?0?_ZN4core5slice3raw14from_raw_parts18precondition_check17h88512fbb981fe93cE@4HA"@IMGREL
	.long	1
	.section	.text,"xr",one_only,_ZN4core5slice3raw14from_raw_parts18precondition_check17h88512fbb981fe93cE,unique,116

	.def	_ZN4core5slice3raw18from_raw_parts_mut18precondition_check17h056012ccdafb90baE;
	.scl	3;
	.type	32;
	.endef
	.section	.text,"xr",one_only,_ZN4core5slice3raw18from_raw_parts_mut18precondition_check17h056012ccdafb90baE,unique,117
	.p2align	4
_ZN4core5slice3raw18from_raw_parts_mut18precondition_check17h056012ccdafb90baE:
.Lfunc_begin26:
.seh_proc _ZN4core5slice3raw18from_raw_parts_mut18precondition_check17h056012ccdafb90baE
	.seh_handler __CxxFrameHandler3, @unwind, @except
	pushq	%rbp
	.seh_pushreg %rbp
	subq	$224, %rsp
	.seh_stackalloc 224
	leaq	128(%rsp), %rbp
	.seh_setframe %rbp, 128
	.seh_endprologue
	movq	$-2, 88(%rbp)
	movq	%r9, -80(%rbp)
	movq	%r8, -64(%rbp)
	movq	%rdx, -72(%rbp)
	movq	%rcx, %rax
	movq	-64(%rbp), %rcx
	movq	%rax, -56(%rbp)
	movq	144(%rbp), %rax
	movq	%rax, -48(%rbp)
	movq	%rcx, %rax
	shrq	%rax
	movabsq	$6148914691236517205, %rdx
	andq	%rdx, %rax
	subq	%rax, %rcx
	movabsq	$3689348814741910323, %rdx
	movq	%rcx, %rax
	andq	%rdx, %rax
	shrq	$2, %rcx
	andq	%rdx, %rcx
	addq	%rcx, %rax
	movq	%rax, %rcx
	shrq	$4, %rcx
	addq	%rcx, %rax
	movabsq	$1085102592571150095, %rcx
	andq	%rcx, %rax
	movabsq	$72340172838076673, %rcx
	imulq	%rcx, %rax
	shrq	$56, %rax
	movl	%eax, 84(%rbp)
	cmpl	$1, 84(%rbp)
	jne	.LBB116_2
	movq	-56(%rbp), %rax
	movq	-64(%rbp), %rcx
	subq	$1, %rcx
	andq	%rcx, %rax
	cmpq	$0, %rax
	je	.LBB116_3
	jmp	.LBB116_4
.LBB116_2:
	leaq	anon.aea64e3d4c527d9b67f1a42df9b9b7d7.55(%rip), %rax
	movq	%rax, 24(%rbp)
	movq	$1, 32(%rbp)
	movq	$0, 56(%rbp)
	movq	$8, 40(%rbp)
	movq	$0, 48(%rbp)
.Ltmp224:
	leaq	anon.aea64e3d4c527d9b67f1a42df9b9b7d7.57(%rip), %rdx
	leaq	24(%rbp), %rcx
	callq	_ZN4core9panicking9panic_fmt17hdecc33e36b6de7c8E
.Ltmp225:
	jmp	.LBB116_13
.LBB116_3:
	movq	-56(%rbp), %rax
	cmpq	$0, %rax
	sete	%al
	xorb	$-1, %al
	testb	$1, %al
	jne	.LBB116_6
	jmp	.LBB116_5
.LBB116_4:
	jmp	.LBB116_5
.LBB116_5:
	jmp	.LBB116_16
.LBB116_6:
	movq	-72(%rbp), %rax
	cmpq	$0, %rax
	sete	%cl
	movb	%cl, -81(%rbp)
	cmpq	$0, %rax
	jne	.LBB116_8
	movq	$-1, 72(%rbp)
	jmp	.LBB116_9
.LBB116_8:
	movb	-81(%rbp), %al
	testb	$1, %al
	jne	.LBB116_11
	jmp	.LBB116_10
.LBB116_9:
	movq	-80(%rbp), %rax
	cmpq	72(%rbp), %rax
	jbe	.LBB116_15
	jmp	.LBB116_14
.LBB116_10:
	movq	-72(%rbp), %rcx
	movabsq	$9223372036854775807, %rax
	xorl	%edx, %edx
	divq	%rcx
	movq	%rax, 72(%rbp)
	jmp	.LBB116_9
.LBB116_11:
.Ltmp226:
	leaq	anon.aea64e3d4c527d9b67f1a42df9b9b7d7.92(%rip), %rcx
	callq	_ZN4core9panicking11panic_const23panic_const_div_by_zero17hdc7eae94e1274a2aE
.Ltmp227:
	jmp	.LBB116_13
.LBB116_13:
	ud2
.LBB116_14:
	jmp	.LBB116_16
.LBB116_15:
	.seh_startepilogue
	addq	$224, %rsp
	popq	%rbp
	.seh_endepilogue
	retq
.LBB116_16:
	movq	-48(%rbp), %r8
	leaq	anon.aea64e3d4c527d9b67f1a42df9b9b7d7.94(%rip), %rax
	movq	%rax, 8(%rbp)
	movq	$283, 16(%rbp)
	leaq	8(%rbp), %rax
	movq	%rax, -40(%rbp)
	movq	$1, -32(%rbp)
	movq	$0, -8(%rbp)
	movq	%rax, (%rbp)
	movl	$8, %eax
	movq	%rax, -24(%rbp)
	movq	$0, -16(%rbp)
	leaq	-40(%rbp), %rcx
	xorl	%edx, %edx
	callq	_ZN4core9panicking18panic_nounwind_fmt17h93b15706b0f16961E
	int3
	.seh_handlerdata
	.long	$cppxdata$_ZN4core5slice3raw18from_raw_parts_mut18precondition_check17h056012ccdafb90baE@IMGREL
	.section	.text,"xr",one_only,_ZN4core5slice3raw18from_raw_parts_mut18precondition_check17h056012ccdafb90baE,unique,117
	.seh_endproc
	.def	"?catch$12@?0?_ZN4core5slice3raw18from_raw_parts_mut18precondition_check17h056012ccdafb90baE@4HA";
	.scl	3;
	.type	32;
	.endef
	.p2align	4
"?catch$12@?0?_ZN4core5slice3raw18from_raw_parts_mut18precondition_check17h056012ccdafb90baE@4HA":
.seh_proc "?catch$12@?0?_ZN4core5slice3raw18from_raw_parts_mut18precondition_check17h056012ccdafb90baE@4HA"
	.seh_handler __CxxFrameHandler3, @unwind, @except
.LBB116_12:
	movq	%rdx, 16(%rsp)
	pushq	%rbp
	.seh_pushreg %rbp
	subq	$32, %rsp
	.seh_stackalloc 32
	leaq	128(%rdx), %rbp
	.seh_endprologue
	callq	_ZN4core9panicking19panic_cannot_unwind17h4a26a134c4adcb2bE
	int3
.Lfunc_end26:
	.seh_handlerdata
	.long	$cppxdata$_ZN4core5slice3raw18from_raw_parts_mut18precondition_check17h056012ccdafb90baE@IMGREL
	.section	.text,"xr",one_only,_ZN4core5slice3raw18from_raw_parts_mut18precondition_check17h056012ccdafb90baE,unique,117
	.seh_endproc
	.section	.xdata,"dr",associative,_ZN4core5slice3raw18from_raw_parts_mut18precondition_check17h056012ccdafb90baE,unique,26
	.p2align	2, 0x0
$cppxdata$_ZN4core5slice3raw18from_raw_parts_mut18precondition_check17h056012ccdafb90baE:
	.long	429065506
	.long	2
	.long	$stateUnwindMap$_ZN4core5slice3raw18from_raw_parts_mut18precondition_check17h056012ccdafb90baE@IMGREL
	.long	1
	.long	$tryMap$_ZN4core5slice3raw18from_raw_parts_mut18precondition_check17h056012ccdafb90baE@IMGREL
	.long	4
	.long	$ip2state$_ZN4core5slice3raw18from_raw_parts_mut18precondition_check17h056012ccdafb90baE@IMGREL
	.long	216
	.long	0
	.long	1
$stateUnwindMap$_ZN4core5slice3raw18from_raw_parts_mut18precondition_check17h056012ccdafb90baE:
	.long	-1
	.long	0
	.long	-1
	.long	0
$tryMap$_ZN4core5slice3raw18from_raw_parts_mut18precondition_check17h056012ccdafb90baE:
	.long	0
	.long	0
	.long	1
	.long	1
	.long	$handlerMap$0$_ZN4core5slice3raw18from_raw_parts_mut18precondition_check17h056012ccdafb90baE@IMGREL
$handlerMap$0$_ZN4core5slice3raw18from_raw_parts_mut18precondition_check17h056012ccdafb90baE:
	.long	64
	.long	0
	.long	0
	.long	"?catch$12@?0?_ZN4core5slice3raw18from_raw_parts_mut18precondition_check17h056012ccdafb90baE@4HA"@IMGREL
	.long	56
$ip2state$_ZN4core5slice3raw18from_raw_parts_mut18precondition_check17h056012ccdafb90baE:
	.long	.Lfunc_begin26@IMGREL
	.long	-1
	.long	.Ltmp224@IMGREL+1
	.long	0
	.long	.Ltmp227@IMGREL+1
	.long	-1
	.long	"?catch$12@?0?_ZN4core5slice3raw18from_raw_parts_mut18precondition_check17h056012ccdafb90baE@4HA"@IMGREL
	.long	1
	.section	.text,"xr",one_only,_ZN4core5slice3raw18from_raw_parts_mut18precondition_check17h056012ccdafb90baE,unique,117

	.def	_ZN4core6option15Option$LT$T$GT$11map_or_else17hf2dcd7af6649cf99E;
	.scl	3;
	.type	32;
	.endef
